(lp0
(S'img_228.jpg'
p1
(lp2
(I7
I404
I680
I118
tp3
atp4
a(S'img_184.jpg'
p5
(lp6
(I477
I68
I462
I78
tp7
a(I476
I180
I466
I74
tp8
a(I555
I488
I323
I99
tp9
a(I485
I618
I433
I105
tp10
atp11
a(S'img_180.jpg'
p12
(lp13
(I602
I677
I142
I80
tp14
a(I582
I780
I181
I64
tp15
atp16
a(S'img_121.jpg'
p17
(lp18
(I4
I136
I316
I92
tp19
a(I363
I158
I249
I84
tp20
a(I232
I261
I117
I53
tp21
a(I152
I355
I352
I84
tp22
atp23
a(S'img_118.jpg'
p24
(lp25
(I78
I310
I126
I68
tp26
a(I239
I312
I312
I68
tp27
a(I155
I385
I270
I38
tp28
a(I443
I385
I34
I37
tp29
a(I102
I427
I210
I38
tp30
a(I332
I427
I212
I39
tp31
atp32
a(S'img_73.jpg'
p33
(lp34
(I315
I354
I386
I112
tp35
a(I356
I480
I296
I107
tp36
a(I391
I759
I60
I15
tp37
a(I460
I758
I69
I17
tp38
a(I537
I756
I69
I17
tp39
a(I466
I781
I65
I13
tp40
atp41
a(S'img_110.jpg'
p42
(lp43
(I9
I318
I521
I71
tp44
a(I101
I381
I342
I43
tp45
atp46
a(S'img_160.jpg'
p47
(lp48
(I47
I122
I446
I178
tp49
atp50
a(S'img_71.jpg'
p51
(lp52
(I27
I702
I447
I157
tp53
a(I611
I723
I526
I158
tp54
atp55
a(S'img_44.jpg'
p56
(lp57
cnumpy.core.multiarray
_reconstruct
p58
(cnumpy
ndarray
p59
(I0
tp60
S'b'
p61
tp62
Rp63
(I1
(I4
tp64
cnumpy
dtype
p65
(S'f8'
p66
I0
I1
tp67
Rp68
(I3
S'<'
p69
NNNI-1
I-1
I0
tp70
bI00
S'\xd1^B{\t\xed\t@\x8e\x1eQA\xb6A}@\xa9 \xdb\x10P|X@\x80\x1d\x8cYi\xb4D@'
p71
tp72
bag58
(g59
(I0
tp73
g61
tp74
Rp75
(I1
(I4
tp76
g68
I00
S'\xec\x9b\xe4\xfdu\xc0m@\x18\xee\xea\x9b\xe4\x9d}@\x8c\x94\x81\xa7[\x93X@[.\xdc\xd57I:@'
p77
tp78
bag58
(g59
(I0
tp79
g61
tp80
Rp81
(I1
(I4
tp82
g68
I00
S'g\xa5\xd1#*(n@\x90\xa8 \xdb\x10\x88\x81@\xdd\xd57\xc9\xfb\xdbb@\xab\xaa\xaa\xaa\xaa*=@'
p83
tp84
bag58
(g59
(I0
tp85
g61
tp86
Rp87
(I1
(I4
tp88
g68
I00
S'\xdb\x10P|\xce\x84\x80@|\t\xed%\xb4\xbf{@5zD\x05\xd9\x96b@\x08cV\x1a=b@@'
p89
tp90
bag58
(g59
(I0
tp91
g61
tp92
Rp93
(I1
(I4
tp94
g68
I00
S'\xd4\xad\xf9a\x91\x8a\x80@\x16d\x1b\x02\x8ag~@4\xb5\\\xb8\xab?`@\xf9\x9c\xa9\xe5\xc2];@'
p95
tp96
bag58
(g59
(I0
tp97
g61
tp98
Rp99
(I1
(I4
tp100
g68
I00
S'\xe9\x11\x15d\x1b\x12\x89@\x90\xa8 \xdb\x10x|@\x16)\x03O\xb7V`@[.\xdc\xd57I:@'
p101
tp102
bag58
(g59
(I0
tp103
g61
tp104
Rp105
(I1
(I4
tp106
g68
I00
S'\x9d\xa9\xe5\xc2]\x83\x90@\x06\xd9\x86\x80\xe2\x1b|@o\xcd\x0f\x8b\x94\x11`@o\xcd\x0f\x8b\x94\x01;@'
p107
tp108
bag58
(g59
(I0
tp109
g61
tp110
Rp111
(I1
(I4
tp112
g68
I00
S'\x12\x15d\x1b\x02\x8c\x90@\xe3s\xa6\x96\x0b\x7f\x80@\xb6\\\xb8\xabo\xb2^@G\x8f\xa8 \xdb\x909@'
p113
tp114
bag58
(g59
(I0
tp115
g61
tp116
Rp117
(I1
(I4
tp118
g68
I00
S'B\xb6!\xa0\xf8\x98\x80@\xa7\x96\x0bw\xf5\x11\x81@J\xde_\x07c\xa6e@\x08cV\x1a=b@@'
p119
tp120
batp121
a(S'img_158.jpg'
p122
(lp123
(I171
I9
I310
I64
tp124
a(I240
I205
I208
I34
tp125
a(I173
I354
I267
I49
tp126
a(I194
I250
I35
I8
tp127
atp128
a(S'img_233.jpg'
p129
(lp130
(I153
I251
I327
I114
tp131
a(I76
I141
I499
I108
tp132
atp133
a(S'img_10.jpg'
p134
(lp135
g58
(g59
(I0
tp136
g61
tp137
Rp138
(I1
(I4
tp139
g68
I00
S'\\\xf3\xc3"e(w@\xb5\x97\xd0^B[\\@0\xa1\xbd\x84\xf6\xd2Q@\x1fQA\xb6! 8@'
p140
tp141
bag58
(g59
(I0
tp142
g61
tp143
Rp144
(I1
(I4
tp145
g68
I00
S'\xd2#*\xc86D|@\xf0\xaf\x831+-\\@k\xb9pW\xdf\xa4Q@\x1d\xc7q\x1c\xc7q3@'
p146
tp147
bag58
(g59
(I0
tp148
g61
tp149
Rp150
(I1
(I4
tp151
g68
I00
S"7\x04\x14\x9f3Ew@\x12\x15d\x1b\x02\xeaa@\xec`\xccJ\xa3'U@\xd1^B{\t\xed9@"
p152
tp153
bag58
(g59
(I0
tp154
g61
tp155
Rp156
(I1
(I4
tp157
g68
I00
S'\xc96\x04\x14\x9f\x13}@\x97\x0bw\xf5M\x82a@\x0b\xb2\r\x01\xc5gW@mC@\xf19S6@'
p158
tp159
bag58
(g59
(I0
tp160
g61
tp161
Rp162
(I1
(I4
tp163
g68
I00
S'?gj\xb9p\xc7\x81@9\x8e\xe38\x8e\x03a@6?,R\x06\xdeO@\xf7\x12\xdaKh\xaf6@'
p164
tp165
bag58
(g59
(I0
tp166
g61
tp167
Rp168
(I1
(I4
tp169
g68
I00
S'\x10\x8b\x94\x81\xa7+x@\xd8\xc1\x98\x95Fot@\xec\x9b\xe4\xfdu\xc0}@\x1c\x02\x8a\xcf\x99\x1aQ@'
p170
tp171
bag58
(g59
(I0
tp172
g61
tp173
Rp174
(I1
(I4
tp175
g68
I00
S'\xbfI\xde_\x07kx@\xbb5?,R\xfey@\x80\x1d\x8cYi\xb4D@X\xdf$\xef\xafCC@'
p176
tp177
bag58
(g59
(I0
tp178
g61
tp179
Rp180
(I1
(I4
tp181
g68
I00
S'\x15\x9f3\xb5\\\x10|@.\x17\xee\xea\x9b\x14x@p\x92\xf7\xd7\xc1hr@~\x93\xbc\xbf\x0e\x06P@'
p182
tp183
bag58
(g59
(I0
tp184
g61
tp185
Rp186
(I1
(I4
tp187
g68
I00
S'0\xa1\xbd\x84\xf6\x06\x8a@uk~X\xa4\xa4\x88@\x03\x8a\xcf\x99Z\x8eZ@W\x1a=\xa2\x82\xec@@'
p188
tp189
batp190
a(S'img_20.jpg'
p191
(lp192
(I386
I197
I446
I120
tp193
a(I390
I306
I192
I102
tp194
a(I634
I332
I112
I90
tp195
a(I791
I342
I176
I99
tp196
a(I427
I493
I616
I130
tp197
a(I427
I607
I218
I81
tp198
atp199
a(S'img_50.jpg'
p200
(lp201
(I86
I90
I483
I86
tp202
a(I394
I463
I25
I5
tp203
a(I423
I463
I36
I6
tp204
a(I463
I463
I68
I6
tp205
a(I536
I465
I11
I4
tp206
atp207
a(S'img_55.jpg'
p208
(lp209
(I196
I147
I956
I153
tp210
a(I584
I298
I142
I83
tp211
a(I769
I297
I135
I85
tp212
a(I69
I368
I893
I543
tp213
a(I300
I788
I252
I109
tp214
atp215
a(S'img_105.jpg'
p216
(lp217
(I44
I128
I312
I91
tp218
a(I161
I301
I355
I42
tp219
atp220
a(S'img_153.jpg'
p221
(lp222
(I50
I194
I37
I12
tp223
a(I48
I208
I201
I49
tp224
a(I279
I212
I267
I59
tp225
atp226
a(S'img_205.jpg'
p227
(lp228
(I306
I193
I14
I7
tp229
a(I324
I192
I15
I7
tp230
a(I343
I191
I26
I9
tp231
a(I307
I204
I55
I19
tp232
a(I371
I202
I13
I16
tp233
a(I305
I225
I62
I19
tp234
a(I304
I246
I55
I19
tp235
atp236
a(S'img_97.jpg'
p237
(lp238
(I318
I487
I338
I106
tp239
a(I704
I484
I213
I112
tp240
atp241
a(S'img_133.jpg'
p242
(lp243
(I875
I648
I112
I33
tp244
atp245
a(S'img_116.jpg'
p246
(lp247
(I269
I197
I5
I9
tp248
a(I269
I212
I5
I8
tp249
a(I250
I47
I26
I38
tp250
atp251
a(S'img_134.jpg'
p252
(lp253
(I44
I440
I1169
I134
tp254
atp255
a(S'img_103.jpg'
p256
(lp257
(I178
I336
I129
I34
tp258
a(I323
I339
I131
I34
tp259
atp260
a(S'img_8.jpg'
p261
(lp262
g58
(g59
(I0
tp263
g61
tp264
Rp265
(I1
(I4
tp266
g68
I00
S'\x00\x00\x00\x00\x00O\x81@\x00\x00\x00\x00\x00\x1cl@\x00\x00\x00\x00\x008|@\x00\x00\x00\x00\x00 4@'
p267
tp268
bag58
(g59
(I0
tp269
g61
tp270
Rp271
(I1
(I4
tp272
g68
I00
S'\x00\x00\x00\x00\x00\xfe\x81@\x00\x00\x00\x00\x00\x0ci@\x00\x00\x00\x00\x00 {@\x00\x00\x00\x00\x00\xa0N@'
p273
tp274
bag58
(g59
(I0
tp275
g61
tp276
Rp277
(I1
(I4
tp278
g68
I00
S'\x00\x00\x00\x00\x00\x7f\x83@\x00\x00\x00\x00\x00\x10q@\x00\x00\x00\x00\x00\nv@\x00\x00\x00\x00\x00 K@'
p279
tp280
bag58
(g59
(I0
tp281
g61
tp282
Rp283
(I1
(I4
tp284
g68
I00
S'\x00\x00\x00\x00\x00\x90\x84@\x00\x00\x00\x00\x00 t@\x00\x00\x00\x00\x00`B@\x00\x00\x00\x00\x00`9@'
p285
tp286
bag58
(g59
(I0
tp287
g61
tp288
Rp289
(I1
(I4
tp290
g68
I00
S'\x00\x00\x00\x00\x00\xaf\x85@\x00\x00\x00\x00\x00 t@\x00\x00\x00\x00\x00pl@\x00\x00\x00\x00\x00\xf0O@'
p291
tp292
bag58
(g59
(I0
tp293
g61
tp294
Rp295
(I1
(I4
tp296
g68
I00
S'\x00\x00\x00\x00\x00\x9c\x8f@\x00\x00\x00\x00\x002\x8a@\x00\x00\x00\x00\x00PF@\x00\x00\x00\x00\x00\x80!@'
p297
tp298
bag58
(g59
(I0
tp299
g61
tp300
Rp301
(I1
(I4
tp302
g68
I00
S'\x00\x00\x00\x00\x00)\x8e@\x00\x00\x00\x00\x00\xa2\x8a@\x00\x00\x00\x00\x00\xf8V@\x00\x00\x00\x00\x00\x00%@'
p303
tp304
bag58
(g59
(I0
tp305
g61
tp306
Rp307
(I1
(I4
tp308
g68
I00
S'\x00\x00\x00\x00\x00-\x8d@\x00\x00\x00\x00\x00m\x8b@\x00\x00\x00\x00\x00\x00L@\x00\x00\x00\x00\x00\x80!@'
p309
tp310
bag58
(g59
(I0
tp311
g61
tp312
Rp313
(I1
(I4
tp314
g68
I00
S'\x00\x00\x00\x00\x00,\x8f@\x00\x00\x00\x00\x00f\x8b@\x00\x00\x00\x00\x00\xc0M@\x00\x00\x00\x00\x00@#@'
p315
tp316
bag58
(g59
(I0
tp317
g61
tp318
Rp319
(I1
(I4
tp320
g68
I00
S'\x00\x00\x00\x00\x00;\x8d@\x00\x00\x00\x00\x00\x0e\x8c@\x00\x00\x00\x00\x00\xd8^@\x00\x00\x00\x00\x00\xc0&@'
p321
tp322
bag58
(g59
(I0
tp323
g61
tp324
Rp325
(I1
(I4
tp326
g68
I00
S'\x00\x00\x00\x00\x00\xdb\x81@\x00\x00\x00\x00\x00\x89\x8b@\x00\x00\x00\x00\x00\xb0J@\x00\x00\x00\x00\x00\x00%@'
p327
tp328
batp329
a(S'img_138.jpg'
p330
(lp331
(I261
I354
I947
I233
tp332
atp333
a(S'img_186.jpg'
p334
(lp335
(I872
I465
I379
I93
tp336
a(I488
I461
I325
I86
tp337
a(I53
I455
I367
I85
tp338
atp339
a(S'img_163.jpg'
p340
(lp341
(I401
I155
I17
I11
tp342
a(I423
I156
I27
I12
tp343
a(I455
I157
I56
I16
tp344
a(I516
I160
I34
I15
tp345
atp346
a(S'img_89.jpg'
p347
(lp348
(I409
I492
I225
I106
tp349
a(I681
I508
I280
I104
tp350
a(I309
I629
I293
I132
tp351
a(I651
I643
I399
I113
tp352
atp353
a(S'img_175.jpg'
p354
(lp355
(I229
I201
I59
I26
tp356
a(I296
I203
I35
I20
tp357
a(I177
I291
I17
I5
tp358
a(I225
I290
I23
I7
tp359
a(I251
I290
I32
I7
tp360
a(I197
I290
I24
I7
tp361
atp362
a(S'img_178.jpg'
p363
(lp364
(I414
I193
I77
I105
tp365
a(I371
I141
I88
I15
tp366
a(I464
I141
I17
I13
tp367
a(I488
I141
I49
I13
tp368
a(I370
I161
I32
I13
tp369
a(I409
I160
I64
I14
tp370
a(I482
I161
I23
I12
tp371
atp372
a(S'img_104.jpg'
p373
(lp374
(I1
I35
I628
I246
tp375
atp376
a(S'img_9.jpg'
p377
(lp378
(I196
I224
I61
I55
tp379
a(I196
I294
I66
I76
tp380
a(I23
I422
I203
I39
tp381
a(I245
I423
I199
I31
tp382
a(I25
I457
I278
I33
tp383
a(I323
I469
I122
I30
tp384
a(I27
I513
I217
I41
tp385
a(I264
I516
I42
I30
tp386
a(I321
I518
I121
I30
tp387
atp388
a(S'img_171.jpg'
p389
(lp390
(I128
I342
I501
I63
tp391
atp392
a(S'img_102.jpg'
p393
(lp394
(I18
I295
I236
I51
tp395
a(I283
I302
I158
I49
tp396
a(I125
I350
I202
I26
tp397
a(I339
I357
I91
I24
tp398
atp399
a(S'img_79.jpg'
p400
(lp401
(I346
I158
I112
I37
tp402
a(I363
I212
I76
I34
tp403
atp404
a(S'img_204.jpg'
p405
(lp406
(I33
I326
I105
I39
tp407
a(I170
I322
I104
I39
tp408
a(I93
I376
I133
I43
tp409
a(I380
I446
I103
I23
tp410
a(I495
I446
I140
I22
tp411
a(I613
I39
I15
I23
tp412
atp413
a(S'img_139.jpg'
p414
(lp415
(I88
I164
I1106
I366
tp416
a(I105
I589
I218
I64
tp417
a(I397
I637
I28
I4
tp418
a(I506
I585
I162
I66
tp419
a(I747
I633
I30
I5
tp420
a(I861
I576
I310
I71
tp421
a(I456
I770
I296
I106
tp422
atp423
a(S'img_45.jpg'
p424
(lp425
g58
(g59
(I0
tp426
g61
tp427
Rp428
(I1
(I4
tp429
g68
I00
S'\x0e\x01\xc5\xe7Lm~@T\xcb\x85\xbb\xfa\xc6o@\x02\xc5\xe7L-\xaf}@\xdbKh/\xa1\x1dY@'
p430
tp431
bag58
(g59
(I0
tp432
g61
tp433
Rp434
(I1
(I4
tp435
g68
I00
S'\xa9 \xdb\x10P|h@\x1ax\xba5?\\w@\xef\xaf\x831+=q@\x02\xc5\xe7L-7X@'
p436
tp437
bag58
(g59
(I0
tp438
g61
tp439
Rp440
(I1
(I4
tp441
g68
I00
S'\xd9\x86\x80\xe2sN\x81@\xd7\xfc\xb0H\x19\x90w@\xeb\x9b\xe4\xfdu\xd0\x82@\x02\xc5\xe7L-7X@'
p442
tp443
bag58
(g59
(I0
tp444
g61
tp445
Rp446
(I1
(I4
tp447
g68
I00
S'\x04O\xb7\xe6\x87\xe5l@\xb3\r\x01\xc5\xe7\xac\x87@\t(>gj\xb9B@mC@\xf19SF@'
p448
tp449
bag58
(g59
(I0
tp450
g61
tp451
Rp452
(I1
(I4
tp453
g68
I00
S'\x93\xf7\xd7\xc1\x98\x15s@\xc1\xd3\xad\xf9a\xa1\x87@\xea\xd6\xfc\xb0Hy`@\x93\xf7\xd7\xc1\x98\x15C@'
p454
tp455
bag58
(g59
(I0
tp456
g61
tp457
Rp458
(I1
(I4
tp459
g68
I00
S"K\xa3GT\x90u}@'y\x7f\x1d\x8c\xb5\x87@U\x90m\x08(\xb6q@\x93\xf7\xd7\xc1\x98\x15C@"
p460
tp461
bag58
(g59
(I0
tp462
g61
tp463
Rp464
(I1
(I4
tp465
g68
I00
S'\x83lC@\xf1\xb9k@\xbd\xbf\x0e\xc6\xac4\x89@\xf6M\xf2\xfe:XD@\xa8[\xf3\xc3"%F@'
p466
tp467
bag58
(g59
(I0
tp468
g61
tp469
Rp470
(I1
(I4
tp471
g68
I00
S'\xeb\x9b\xe4\xfdu\xd0r@\xbd\xbf\x0e\xc6\xac4\x89@4\xb5\\\xb8\xab/k@\xbapW\xdf$/B@'
p472
tp473
bag58
(g59
(I0
tp474
g61
tp475
Rp476
(I1
(I4
tp477
g68
I00
S'\xe8L-\x17\xeeB\x81@+\xc86\x04\x14C\x89@\x81\xe2s\xa6\x96\x0bW@\xf5\x88\n\xb2\r\x01B@'
p478
tp479
bag58
(g59
(I0
tp480
g61
tp481
Rp482
(I1
(I4
tp483
g68
I00
S'S\x06\x9en\xcd;\x85@#e\xe0\xe9\xd6H\x89@\x9en\xcd\x0f\x8b\xf4f@\xf5\x88\n\xb2\r\x01B@'
p484
tp485
bag58
(g59
(I0
tp486
g61
tp487
Rp488
(I1
(I4
tp489
g68
I00
S'\xae\xf9a\x912\xfc\x8b@\xae\xf9a\x912@\x89@.\x17\xee\xea\x9b\x14h@\xa7\x96\x0bw\xf5\xcdC@'
p490
tp491
bag58
(g59
(I0
tp492
g61
tp493
Rp494
(I1
(I4
tp495
g68
I00
S'\xcdJ\xa3GT\x80k@\xcf\xd4r\xe1\xae\xb6\x8a@\xf6M\xf2\xfe:XD@2+\x8d\x1eQ\x81F@'
p496
tp497
bag58
(g59
(I0
tp498
g61
tp499
Rp500
(I1
(I4
tp501
g68
I00
S'5zD\x05\xd9\x96r@Zi\xf4\x88\n\xae\x8a@\xae\xf9a\x912@y@\x1d\xc7q\x1c\xc7qC@'
p502
tp503
bag58
(g59
(I0
tp504
g61
tp505
Rp506
(I1
(I4
tp507
g68
I00
S'\x90\xa8 \xdb\x10\x00\x87@RA\xb6!\xa0\x18\x8b@\x81\xe2s\xa6\x96\x0b\x17@\xa9 \xdb\x10P|8@'
p508
tp509
bag58
(g59
(I0
tp510
g61
tp511
Rp512
(I1
(I4
tp513
g68
I00
S'~\x93\xbc\xbf\x0e:\x88@\xb9\xabo\x92\xf7\xc7\x8a@\x8b\xcf\x99Z.\xb4{@E\x05\xd9\x86\x80\xe2D@'
p514
tp515
batp516
a(S'img_230.jpg'
p517
(lp518
(I157
I121
I175
I52
tp519
a(I139
I173
I195
I103
tp520
a(I83
I280
I312
I51
tp521
a(I67
I383
I348
I65
tp522
a(I115
I458
I100
I45
tp523
a(I229
I456
I154
I48
tp524
a(I136
I529
I218
I51
tp525
atp526
a(S'img_117.jpg'
p527
(lp528
(I11
I5
I287
I50
tp529
a(I319
I1
I200
I51
tp530
a(I9
I141
I203
I42
tp531
a(I232
I137
I165
I51
tp532
a(I418
I135
I208
I51
tp533
atp534
a(S'img_145.jpg'
p535
(lp536
(I115
I438
I981
I96
tp537
atp538
a(S'img_80.jpg'
p539
(lp540
(I484
I531
I144
I36
tp541
a(I652
I524
I177
I37
tp542
a(I437
I685
I141
I21
tp543
a(I598
I681
I157
I21
tp544
a(I778
I679
I105
I18
tp545
atp546
a(S'img_179.jpg'
p547
(lp548
(I81
I107
I516
I315
tp549
atp550
a(S'img_231.jpg'
p551
(lp552
g58
(g59
(I0
tp553
g61
tp554
Rp555
(I1
(I4
tp556
g68
I00
S'\x00\x00\x00\x00\x00\x1d\x83@\x00\x00\x00\x00\x00Xd@\x00\x00\x00\x00\x00\x1ce@\x00\x00\x00\x00\x00\xb4b@'
p557
tp558
bag58
(g59
(I0
tp559
g61
tp560
Rp561
(I1
(I4
tp562
g68
I00
S'\x00\x00\x00\x00\x00\x16\x83@\x00\x00\x00\x00\x00\xeeu@\x00\x00\x00\x00\x00\xa4f@\x00\x00\x00\x00\x00\x08j@'
p563
tp564
bag58
(g59
(I0
tp565
g61
tp566
Rp567
(I1
(I4
tp568
g68
I00
S'\x00\x00\x00\x00\x00|b@\x00\x00\x00\x00\x00\xd2\x85@\x00\x00\x00\x00\x00\t\x81@\x00\x00\x00\x00\x00\xd0Y@'
p569
tp570
bag58
(g59
(I0
tp571
g61
tp572
Rp573
(I1
(I4
tp574
g68
I00
S'\x00\x00\x00\x00\x00\x1b\x87@\x00\x00\x00\x00\x00w\x85@\x00\x00\x00\x00\x00E\x80@\x00\x00\x00\x00\x00PV@'
p575
tp576
bag58
(g59
(I0
tp577
g61
tp578
Rp579
(I1
(I4
tp580
g68
I00
S'\x00\x00\x00\x00\x00\xccc@\x00\x00\x00\x00\x00\xbf\x88@\x00\x00\x00\x00\x00\xff\x86@\x00\x00\x00\x00\x00xS@'
p581
tp582
bag58
(g59
(I0
tp583
g61
tp584
Rp585
(I1
(I4
tp586
g68
I00
S'\x00\x00\x00\x00\x00\x96\x8d@\x00\x00\x00\x00\x00=\x89@\x00\x00\x00\x00\x00\x94s@\x00\x00\x00\x00\x00 T@'
p587
tp588
batp589
a(S'img_206.jpg'
p590
(lp591
(I72
I582
I80
I22
tp592
a(I1023
I588
I135
I25
tp593
atp594
a(S'img_131.jpg'
p595
(lp596
(I32
I161
I1216
I624
tp597
atp598
a(S'img_27.jpg'
p599
(lp600
g58
(g59
(I0
tp601
g61
tp602
Rp603
(I1
(I4
tp604
g68
I00
S'HT\x90m\x08\xf8`@RA\xb6!\xa0\x18[@\x7fX\xa4\x0c<]\x82@\x11P|\xce\xd4\x82j@'
p605
tp606
bag58
(g59
(I0
tp607
g61
tp608
Rp609
(I1
(I4
tp610
g68
I00
S'\xbe\x84\xf6\x12\xda\x13v@\x8b\x94\x81\xa7[\x1bs@\x94\xbc\xbf\x0e\xc6le@\x04O\xb7\xe6\x87\xf5a@'
p611
tp612
bag58
(g59
(I0
tp613
g61
tp614
Rp615
(I1
(I4
tp616
g68
I00
S'\xed%\xb4\x97\xd0\xa8\x90@\x03\x8a\xcf\x99Z\x8eZ@\xf5\x88\n\xb2\r\x01"@\x95\x81\xa7[\xf3\xc3\'@'
p617
tp618
bag58
(g59
(I0
tp619
g61
tp620
Rp621
(I1
(I4
tp622
g68
I00
S'\xbapW\xdf$\x1fm@\x1fQA\xb6!\x98}@\xd1^B{\t\xedI@\x08cV\x1a=b@@'
p623
tp624
bag58
(g59
(I0
tp625
g61
tp626
Rp627
(I1
(I4
tp628
g68
I00
S'B\xb6!\xa0\xf8Ts@\xa7\x96\x0bw\xf5\xbd~@qW\xdf$\xef\xaf_@k\xb9pW\xdf\xa4A@'
p629
tp630
bag58
(g59
(I0
tp631
g61
tp632
Rp633
(I1
(I4
tp634
g68
I00
S'\xbapW\xdf$\x1f}@\x8a\n\xb2\r\x01\xd5~@\x16)\x03O\xb7V`@\xe1\xe9\xd6\xfc\xb0HA@'
p635
tp636
bag58
(g59
(I0
tp637
g61
tp638
Rp639
(I1
(I4
tp640
g68
I00
S'n\x08(>gv\x90@\x00\x00\x00\x00\x00\x00\x00\x00\xf6M\xf2\xfe:XD@\xfaa\x912\xf0\xb4M@'
p641
tp642
bag58
(g59
(I0
tp643
g61
tp644
Rp645
(I1
(I4
tp646
g68
I00
S'\xb6\\\xb8\xabod\x92@\x00\x00\x00\x00\x00\x00\x00\x00l~X\xa4\x0c\xfcC@W\x1a=\xa2\x82\xecP@'
p647
tp648
bag58
(g59
(I0
tp649
g61
tp650
Rp651
(I1
(I4
tp652
g68
I00
S'c\x912\xf0t\xff\x8c@o\xcd\x0f\x8b\x94\x01[@\xcdJ\xa3GT\x90`@\n\xed%\xb4\x97\x10E@'
p653
tp654
bag58
(g59
(I0
tp655
g61
tp656
Rp657
(I1
(I4
tp658
g68
I00
S"'y\x7f\x1d\x8c\xdf\x90@\x841+\x8d\x1e\x11^@(y\x7f\x1d\x8c\xe9o@\xf7\x12\xdaKh\xafF@"
p659
tp660
bag58
(g59
(I0
tp661
g61
tp662
Rp663
(I1
(I4
tp664
g68
I00
S'k\xb9pW\xdfP\x8f@\x89\n\xb2\r\x01\xe5c@ \x16)\x03OwJ@\x08cV\x1a=b@@'
p665
tp666
bag58
(g59
(I0
tp667
g61
tp668
Rp669
(I1
(I4
tp670
g68
I00
S',\x8d\x1eQA\xaa\x90@\xd8\xc1\x98\x95Fod@\xd9\x86\x80\xe2s\xc6f@l~X\xa4\x0c\xfcC@'
p671
tp672
batp673
a(S'img_195.jpg'
p674
(lp675
(I68
I316
I74
I22
tp676
a(I159
I317
I26
I20
tp677
a(I205
I314
I205
I24
tp678
a(I16
I355
I173
I35
tp679
a(I211
I366
I31
I18
tp680
a(I258
I351
I197
I38
tp681
atp682
a(S'img_232.jpg'
p683
(lp684
g58
(g59
(I0
tp685
g61
tp686
Rp687
(I1
(I4
tp688
g68
I00
S'U\x90m\x08(.\x87@\x12P|\xce\xd4\xfa\x7f@\x97\x0bw\xf5Mrl@Zi\xf4\x88\n\xf2W@'
p689
tp690
bag58
(g59
(I0
tp691
g61
tp692
Rp693
(I1
(I4
tp694
g68
I00
S'VUUUU\rt@G\x8f\xa8 \xdb\x08\x7f@\x88E\xca\xc0\xd3\x8da@b\x912\xf0t\xcbT@'
p695
tp696
bag58
(g59
(I0
tp697
g61
tp698
Rp699
(I1
(I4
tp700
g68
I00
S'd\x1b\x02\x8a\xcf\x01t@\xd67\xc9\xfb\xeb|\x82@\x18\xee\xea\x9b\xe4%\x88@\x922\xf0tk\xbe`@'
p701
tp702
batp703
a(S'img_193.jpg'
p704
(lp705
(I580
I278
I57
I34
tp706
a(I652
I279
I177
I42
tp707
a(I580
I325
I152
I42
tp708
a(I749
I326
I74
I35
tp709
a(I579
I373
I106
I42
tp710
atp711
a(S'img_13.jpg'
p712
(lp713
(I291
I188
I108
I136
tp714
a(I82
I178
I115
I138
tp715
atp716
a(S'img_23.jpg'
p717
(lp718
g58
(g59
(I0
tp719
g61
tp720
Rp721
(I1
(I4
tp722
g68
I00
S"'y\x7f\x1d\x8c\xf9t@t\xa6\x96\x0bw\xd5P@\xbapW\xdf$/r@\x95\x81\xa7[\xf3\xc3G@"
p723
tp724
bag58
(g59
(I0
tp725
g61
tp726
Rp727
(I1
(I4
tp728
g68
I00
S'\x1b=\xa2\x82l;\x84@\xea\xd6\xfc\xb0HyP@\xd7\xfc\xb0H\x19\x18b@\xa7\x96\x0bw\xf5\xcdC@'
p729
tp730
bag58
(g59
(I0
tp731
g61
tp732
Rp733
(I1
(I4
tp734
g68
I00
S'Zi\xf4\x88\n\xf2w@\xf4\xc3"e\xe0\x99j@\x17)\x03O\xb7\xceu@\x88E\xca\xc0\xd3\x8dQ@'
p735
tp736
bag58
(g59
(I0
tp737
g61
tp738
Rp739
(I1
(I4
tp740
g68
I00
S'\x18\xee\xea\x9b\xe4%\x88@\xc8q\x1c\xc7q\xbcj@\xb5\x97\xd0^B[l@uk~X\xa4,S@'
p741
tp742
bag58
(g59
(I0
tp743
g61
tp744
Rp745
(I1
(I4
tp746
g68
I00
S'\xaa\xe5\xc2]}[u@\xaco\x92\xf7\xd7\x91t@\x8c\x94\x81\xa7[\x93X@\xd7\xfc\xb0H\x19\x18R@'
p747
tp748
bag58
(g59
(I0
tp749
g61
tp750
Rp751
(I1
(I4
tp752
g68
I00
S'\xb8\xe6\x87E\xca\xe8}@\xbb5?,R\x86t@\x9d\xa9\xe5\xc2]\x9dd@\x88E\xca\xc0\xd3\x8dQ@'
p753
tp754
bag58
(g59
(I0
tp755
g61
tp756
Rp757
(I1
(I4
tp758
g68
I00
S'\x18\xee\xea\x9b\xe4i\x85@\xd1^B{\tut@n\x08(>g2s@\xa6\xd1#*\xc8vQ@'
p759
tp760
bag58
(g59
(I0
tp761
g61
tp762
Rp763
(I1
(I4
tp764
g68
I00
S'\x94\xbc\xbf\x0e\xc6\xe4\x8a@HT\x90m\x08\xe8{@\x9c\xe4\xfdu0Fb@~\x93\xbc\xbf\x0e\x06@@'
p765
tp766
bag58
(g59
(I0
tp767
g61
tp768
Rp769
(I1
(I4
tp770
g68
I00
S'\x85\xf6\x12\xdaK\xf0\x8a@s\xe1\xae\xbeI\xe6~@\xbapW\xdf$\x1fm@\x93\xf7\xd7\xc1\x98\x15C@'
p771
tp772
bag58
(g59
(I0
tp773
g61
tp774
Rp775
(I1
(I4
tp776
g68
I00
S'\x18\xee\xea\x9b\xe4\xe1\x8a@\xdaKh/\xa1\xe9\x80@\xbb5?,R\x86D@qW\xdf$\xef\xaf?@'
p777
tp778
bag58
(g59
(I0
tp779
g61
tp780
Rp781
(I1
(I4
tp782
g68
I00
S'\xef\xea\x9b\xe4\xfd\x91\x8c@\xe9\x11\x15d\x1b\xde\x80@\xca\xfb\xeb`\xccj_@qW\xdf$\xef\xaf?@'
p783
tp784
bag58
(g59
(I0
tp785
g61
tp786
Rp787
(I1
(I4
tp788
g68
I00
S'o\xcd\x0f\x8b\x94\x01\x8b@\x7fX\xa4\x0c<]\x82@\x97\x0bw\xf5M\x82a@\x1d\xc7q\x1c\xc7qC@'
p789
tp790
bag58
(g59
(I0
tp791
g61
tp792
Rp793
(I1
(I4
tp794
g68
I00
S'\xf5\x88\n\xb2\r\xad\x8f@\xab\xaa\xaa\xaa\xaa:\x82@\x0e\x01\xc5\xe7LmN@qW\xdf$\xef\xaf?@'
p795
tp796
bag58
(g59
(I0
tp797
g61
tp798
Rp799
(I1
(I4
tp800
g68
I00
S'\x00\x00\x00\x00\x00\xe0u@U\x90m\x08(.\x87@\xaco\x92\xf7\xd7\x81O@\xce\x0f\x8b\x94\x81\xe7B@'
p801
tp802
bag58
(g59
(I0
tp803
g61
tp804
Rp805
(I1
(I4
tp806
g68
I00
S'\xb9\xabo\x92\xf7\xc7z@\xe7\x87E\xca\xc0\x1f\x87@G\x8f\xa8 \xdb\x90Y@X\xdf$\xef\xafCC@'
p807
tp808
bag58
(g59
(I0
tp809
g61
tp810
Rp811
(I1
(I4
tp812
g68
I00
S'\xb7!\xa0\xf8\x9c\xa1\x90@\xa1\xf8\x9c\xa9\xe5*\x86@\x7fX\xa4\x0c<]B@\x7fX\xa4\x0c<]B@'
p813
tp814
batp815
a(S'img_215.jpg'
p816
(lp817
(I84
I497
I1037
I282
tp818
a(I92
I835
I348
I82
tp819
a(I482
I846
I75
I74
tp820
a(I599
I847
I515
I74
tp821
atp822
a(S'img_72.jpg'
p823
(lp824
(I236
I677
I213
I62
tp825
a(I466
I683
I245
I74
tp826
a(I734
I687
I243
I60
tp827
a(I227
I771
I513
I86
tp828
a(I784
I783
I310
I89
tp829
atp830
a(S'img_64.jpg'
p831
(lp832
(I94
I330
I918
I302
tp833
a(I1130
I357
I101
I218
tp834
a(I355
I731
I325
I92
tp835
a(I729
I740
I268
I83
tp836
atp837
a(S'img_210.jpg'
p838
(lp839
(I429
I453
I170
I31
tp840
a(I619
I457
I143
I30
tp841
a(I781
I459
I152
I30
tp842
atp843
a(S'img_176.jpg'
p844
(lp845
(I199
I151
I197
I38
tp846
a(I95
I148
I92
I36
tp847
atp848
a(S'img_174.jpg'
p849
(lp850
(I514
I214
I48
I16
tp851
a(I573
I212
I46
I16
tp852
atp853
a(S'img_19.jpg'
p854
(lp855
g58
(g59
(I0
tp856
g61
tp857
Rp858
(I1
(I4
tp859
g68
I00
S'\x00\x00\x00\x00\x00d\x81@\x00\x00\x00\x00\x00\xbes@\x00\x00\x00\x00\x00\x14p@\x00\x00\x00\x00\x00@:@'
p860
tp861
bag58
(g59
(I0
tp862
g61
tp863
Rp864
(I1
(I4
tp865
g68
I00
S'\x00\x00\x00\x00\x00\x0b\x8b@\x00\x00\x00\x00\x00Ns@\x00\x00\x00\x00\x000p@\x00\x00\x00\x00\x00@:@'
p866
tp867
bag58
(g59
(I0
tp868
g61
tp869
Rp870
(I1
(I4
tp871
g68
I00
S'\x00\x00\x00\x00\x00\x00|@\x00\x00\x00\x00\x00hw@\x00\x00\x00\x00\x00\xa4f@\x00\x00\x00\x00\x00\xa0P@'
p872
tp873
bag58
(g59
(I0
tp874
g61
tp875
Rp876
(I1
(I4
tp877
g68
I00
S'\x00\x00\x00\x00\x00\xb5\x87@\x00\x00\x00\x00\x00"w@\x00\x00\x00\x00\x00HX@\x00\x00\x00\x00\x00\xf0O@'
p878
tp879
bag58
(g59
(I0
tp880
g61
tp881
Rp882
(I1
(I4
tp883
g68
I00
S'\x00\x00\x00\x00\x00\x1c|@\x00\x00\x00\x00\x00\x00|@\x00\x00\x00\x00\x00:x@\x00\x00\x00\x00\x00\xf0O@'
p884
tp885
bag58
(g59
(I0
tp886
g61
tp887
Rp888
(I1
(I4
tp889
g68
I00
S'\x00\x00\x00\x00\x00\x1c|@\x00\x00\x00\x00\x00\x99\x80@\x00\x00\x00\x00\x00,o@\x00\x00\x00\x00\x00HQ@'
p890
tp891
batp892
a(S'img_218.jpg'
p893
(lp894
(I721
I233
I343
I110
tp895
atp896
a(S'img_67.jpg'
p897
(lp898
(I31
I114
I1127
I141
tp899
a(I33
I263
I255
I47
tp900
a(I323
I275
I286
I46
tp901
a(I643
I284
I329
I43
tp902
a(I1001
I293
I150
I39
tp903
a(I184
I843
I816
I67
tp904
atp905
a(S'img_36.jpg'
p906
(lp907
(I246
I581
I30
I11
tp908
a(I204
I593
I115
I18
tp909
a(I220
I615
I87
I18
tp910
atp911
a(S'img_177.jpg'
p912
(lp913
(I11
I179
I57
I29
tp914
a(I13
I220
I19
I14
tp915
a(I7
I261
I22
I15
tp916
a(I6
I293
I54
I15
tp917
a(I171
I189
I137
I57
tp918
a(I319
I198
I112
I51
tp919
a(I236
I263
I61
I21
tp920
a(I305
I262
I7
I20
tp921
a(I319
I263
I71
I18
tp922
a(I248
I295
I80
I25
tp923
a(I340
I295
I40
I18
tp924
atp925
a(S'img_203.jpg'
p926
(lp927
(I201
I47
I236
I78
tp928
a(I80
I163
I475
I91
tp929
a(I32
I301
I569
I98
tp930
atp931
a(S'img_144.jpg'
p932
(lp933
(I276
I786
I394
I47
tp934
a(I725
I783
I251
I48
tp935
a(I370
I860
I302
I46
tp936
a(I729
I859
I157
I45
tp937
atp938
a(S'img_223.jpg'
p939
(lp940
(I61
I176
I190
I59
tp941
atp942
a(S'img_46.jpg'
p943
(lp944
(I56
I403
I161
I29
tp945
a(I239
I401
I234
I30
tp946
a(I499
I399
I94
I32
tp947
atp948
a(S'img_152.jpg'
p949
(lp950
(I193
I150
I23
I34
tp951
a(I34
I240
I396
I60
tp952
a(I110
I312
I222
I55
tp953
a(I38
I379
I380
I61
tp954
a(I3
I429
I19
I10
tp955
atp956
a(S'img_42.jpg'
p957
(lp958
(I186
I84
I383
I167
tp959
a(I43
I244
I576
I212
tp960
a(I172
I464
I163
I12
tp961
a(I352
I468
I96
I10
tp962
a(I469
I469
I89
I9
tp963
atp964
a(S'img_51.jpg'
p965
(lp966
(I630
I85
I79
I23
tp967
a(I717
I86
I82
I20
tp968
a(I808
I88
I90
I20
tp969
a(I101
I564
I298
I71
tp970
a(I107
I681
I369
I69
tp971
a(I514
I686
I361
I67
tp972
a(I114
I794
I73
I61
tp973
a(I216
I795
I197
I63
tp974
a(I445
I798
I419
I64
tp975
a(I122
I904
I177
I61
tp976
atp977
a(S'img_213.jpg'
p978
(lp979
(I217
I483
I295
I78
tp980
a(I309
I587
I111
I44
tp981
a(I248
I647
I224
I50
tp982
a(I231
I711
I254
I48
tp983
atp984
a(S'img_141.jpg'
p985
(lp986
(I34
I289
I214
I93
tp987
a(I336
I289
I141
I31
tp988
a(I633
I682
I70
I34
tp989
atp990
a(S'img_219.jpg'
p991
(lp992
(I278
I230
I125
I81
tp993
a(I468
I245
I124
I80
tp994
a(I687
I223
I166
I63
tp995
a(I920
I226
I186
I64
tp996
a(I842
I301
I102
I44
tp997
atp998
a(S'img_142.jpg'
p999
(lp1000
(I178
I574
I1094
I128
tp1001
atp1002
a(S'img_4.jpg'
p1003
(lp1004
g58
(g59
(I0
tp1005
g61
tp1006
Rp1007
(I1
(I4
tp1008
g68
I00
S'v0f\xa5\xd1\x83\x85@\xf7\x12\xdaKh\xaf\x86@\xea\xd6\xfc\xb0Hyp@\x88E\xca\xc0\xd3\x8dQ@'
p1009
tp1010
bag58
(g59
(I0
tp1011
g61
tp1012
Rp1013
(I1
(I4
tp1014
g68
I00
S'\x17)\x03O\xb7\x02\x8e@}\xce\xd4r\xe1\x9e\x88@!\xdb\x10P|\xce\x1c@\x1d\xc7q\x1c\xc7q#@'
p1015
tp1016
bag58
(g59
(I0
tp1017
g61
tp1018
Rp1019
(I1
(I4
tp1020
g68
I00
S'=\xdd\x9a\x1f\x16\t\x88@T\xcb\x85\xbb\xfa\xc6o@~\x93\xbc\xbf\x0e\x06@@\xa9 \xdb\x10P|(@'
p1021
tp1022
bag58
(g59
(I0
tp1023
g61
tp1024
Rp1025
(I1
(I4
tp1026
g68
I00
S'\xdaKh/\xa1\xa5\x83@"\xa0\xf8\x9c\xa9%o@I\x19x\xba5?>@\r<\xdd\x9a\x1f\x16,@'
p1027
tp1028
bag58
(g59
(I0
tp1029
g61
tp1030
Rp1031
(I1
(I4
tp1032
g68
I00
S'\x98\xd0^B{Qy@\xb1H\x19x\xbaUe@.\x17\xee\xea\x9b\x9cr@\x1e\x8cYi\xf4\xc8E@'
p1033
tp1034
bag58
(g59
(I0
tp1035
g61
tp1036
Rp1037
(I1
(I4
tp1038
g68
I00
S'{D\x05\xd9\x86hy@o\xcd\x0f\x8b\x94\x11`@p\x92\xf7\xd7\xc1hb@\t(>gj\xb9B@'
p1039
tp1040
bag58
(g59
(I0
tp1041
g61
tp1042
Rp1043
(I1
(I4
tp1044
g68
I00
S'\xd0\x99Z.\xdc\x1d\x82@\r<\xdd\x9a\x1f&a@"\xa0\xf8\x9c\xa9%_@\xa6\xd1#*\xc8vA@'
p1045
tp1046
batp1047
a(S'img_99.jpg'
p1048
(lp1049
(I423
I742
I23
I16
tp1050
a(I462
I743
I51
I18
tp1051
a(I531
I744
I120
I18
tp1052
a(I667
I745
I29
I17
tp1053
a(I713
I745
I106
I18
tp1054
a(I835
I744
I59
I19
tp1055
a(I912
I743
I131
I24
tp1056
a(I363
I769
I153
I22
tp1057
a(I537
I772
I57
I21
tp1058
a(I615
I773
I80
I21
tp1059
a(I714
I773
I103
I20
tp1060
a(I833
I772
I78
I21
tp1061
a(I929
I769
I174
I23
tp1062
atp1063
a(S'img_129.jpg'
p1064
(lp1065
(I1025
I477
I20
I27
tp1066
atp1067
a(S'img_112.jpg'
p1068
(lp1069
(I15
I65
I305
I48
tp1070
a(I352
I65
I234
I49
tp1071
a(I12
I133
I576
I176
tp1072
atp1073
a(S'img_229.jpg'
p1074
(lp1075
g58
(g59
(I0
tp1076
g61
tp1077
Rp1078
(I1
(I4
tp1079
g68
I00
S'\x86\xbb\xfa&y\xcfg@\xe7\x87E\xca\xc0S?@\xa5\x0c<\xdd\x9a\x87\x7f@cV\x1a=\xa2\xaaq@'
p1080
tp1081
bag58
(g59
(I0
tp1082
g61
tp1083
Rp1084
(I1
(I4
tp1085
g68
I00
S'K\xa3GT\x90\xfdg@\xf1tk~X\x94s@\x07\x9en\xcd\x0f?\x86@B\xb6!\xa0\xf8\xcch@'
p1086
tp1087
bag58
(g59
(I0
tp1088
g61
tp1089
Rp1090
(I1
(I4
tp1091
g68
I00
S'\x14\x9f3\xb5\\\x98f@X\xdf$\xef\xaf3~@\x13\xdaKh/Ad@\x94\xbc\xbf\x0e\xc6le@'
p1092
tp1093
bag58
(g59
(I0
tp1094
g61
tp1095
Rp1096
(I1
(I4
tp1097
g68
I00
S"\xdf_\x07cV\x8aw@X\xdf$\xef\xaf3~@\xec`\xccJ\xa3'e@hj\xb9pW\x8fe@"
p1098
tp1099
bag58
(g59
(I0
tp1100
g61
tp1101
Rp1102
(I1
(I4
tp1103
g68
I00
S'O\xb7\xe6\x87Ejf@\xc2\x98\x95F\x8f\x80\x84@\xad4zD\x05\xe9f@A\xf19S\xcbuf@'
p1104
tp1105
bag58
(g59
(I0
tp1106
g61
tp1107
Rp1108
(I1
(I4
tp1109
g68
I00
S'\xa3\x82lC@\xd9z@0\xa1\xbd\x84\xf6\x8e\x84@\xa3\x82lC@\xd9z@\xfeu0f\xa51q@'
p1110
tp1111
batp1112
a(S'img_75.jpg'
p1113
(lp1114
(I203
I127
I463
I99
tp1115
a(I422
I304
I276
I95
tp1116
a(I454
I481
I378
I89
tp1117
a(I214
I631
I351
I99
tp1118
a(I265
I802
I625
I102
tp1119
a(I173
I957
I752
I107
tp1120
atp1121
a(S'img_224.jpg'
p1122
(lp1123
(I36
I54
I174
I44
tp1124
a(I251
I54
I332
I57
tp1125
a(I603
I60
I136
I50
tp1126
a(I782
I65
I309
I66
tp1127
a(I1131
I78
I147
I49
tp1128
a(I479
I305
I800
I186
tp1129
a(I793
I565
I486
I185
tp1130
atp1131
a(S'img_57.jpg'
p1132
(lp1133
(I219
I144
I198
I191
tp1134
atp1135
a(S'img_149.jpg'
p1136
(lp1137
(I161
I1145
I87
I58
tp1138
a(I264
I1139
I233
I62
tp1139
a(I517
I1133
I162
I79
tp1140
a(I99
I1168
I30
I28
tp1141
atp1142
a(S'img_181.jpg'
p1143
(lp1144
(I249
I409
I348
I56
tp1145
a(I627
I412
I57
I45
tp1146
a(I710
I412
I323
I58
tp1147
a(I483
I492
I218
I49
tp1148
a(I733
I492
I124
I47
tp1149
atp1150
a(S'img_81.jpg'
p1151
(lp1152
(I421
I463
I494
I139
tp1153
atp1154
a(S'img_119.jpg'
p1155
(lp1156
(I31
I254
I131
I60
tp1157
a(I268
I258
I173
I55
tp1158
a(I459
I261
I179
I54
tp1159
a(I79
I335
I186
I76
tp1160
a(I302
I337
I290
I72
tp1161
atp1162
a(S'img_76.jpg'
p1163
(lp1164
(I0
I505
I1277
I218
tp1165
a(I825
I355
I22
I13
tp1166
atp1167
a(S'img_162.jpg'
p1168
(lp1169
(I544
I451
I95
I25
tp1170
a(I313
I440
I140
I36
tp1171
a(I154
I435
I138
I38
tp1172
atp1173
a(S'img_65.jpg'
p1174
(lp1175
(I466
I350
I596
I203
tp1176
a(I482
I537
I585
I153
tp1177
atp1178
a(S'img_201.jpg'
p1179
(lp1180
(I72
I193
I75
I15
tp1181
a(I153
I193
I95
I16
tp1182
a(I96
I268
I71
I38
tp1183
a(I181
I279
I88
I38
tp1184
a(I286
I270
I135
I39
tp1185
a(I433
I280
I175
I39
tp1186
a(I111
I352
I179
I45
tp1187
a(I304
I354
I228
I43
tp1188
a(I120
I424
I80
I33
tp1189
a(I212
I428
I125
I38
tp1190
atp1191
a(S'img_11.jpg'
p1192
(lp1193
(I245
I51
I120
I102
tp1194
a(I31
I214
I518
I134
tp1195
a(I297
I311
I301
I117
tp1196
a(I370
I136
I15
I14
tp1197
atp1198
a(S'img_154.jpg'
p1199
(lp1200
(I201
I498
I26
I15
tp1201
a(I234
I496
I63
I16
tp1202
a(I206
I268
I49
I5
tp1203
atp1204
a(S'img_98.jpg'
p1205
(lp1206
(I1012
I350
I133
I20
tp1207
a(I553
I568
I147
I43
tp1208
a(I213
I651
I824
I98
tp1209
a(I328
I773
I162
I52
tp1210
a(I516
I767
I94
I56
tp1211
a(I633
I767
I98
I71
tp1212
a(I757
I767
I169
I55
tp1213
atp1214
a(S'img_48.jpg'
p1215
(lp1216
(I433
I455
I249
I51
tp1217
a(I361
I553
I375
I79
tp1218
a(I320
I710
I375
I113
tp1219
a(I726
I721
I61
I73
tp1220
a(I325
I807
I223
I116
tp1221
atp1222
a(S'img_70.jpg'
p1223
(lp1224
(I75
I395
I1190
I210
tp1225
atp1226
a(S'img_62.jpg'
p1227
(lp1228
(I157
I499
I311
I36
tp1229
a(I486
I498
I87
I31
tp1230
a(I127
I558
I310
I37
tp1231
a(I456
I554
I146
I34
tp1232
atp1233
a(S'img_222.jpg'
p1234
(lp1235
(I443
I544
I388
I92
tp1236
a(I506
I633
I265
I49
tp1237
atp1238
a(S'img_170.jpg'
p1239
(lp1240
(I243
I288
I71
I25
tp1241
a(I325
I288
I124
I27
tp1242
a(I463
I302
I18
I11
tp1243
a(I490
I298
I39
I17
tp1244
a(I538
I299
I48
I24
tp1245
a(I296
I158
I31
I15
tp1246
a(I291
I176
I42
I16
tp1247
a(I309
I196
I6
I3
tp1248
a(I297
I204
I13
I6
tp1249
a(I313
I204
I14
I8
tp1250
atp1251
a(S'img_225.jpg'
p1252
(lp1253
(I138
I100
I321
I50
tp1254
a(I140
I308
I513
I48
tp1255
a(I147
I510
I306
I44
tp1256
a(I154
I703
I387
I41
tp1257
a(I810
I113
I63
I46
tp1258
a(I804
I312
I61
I46
tp1259
a(I798
I508
I63
I45
tp1260
a(I791
I696
I60
I42
tp1261
a(I979
I98
I133
I96
tp1262
a(I974
I300
I132
I90
tp1263
a(I959
I507
I130
I87
tp1264
a(I948
I695
I128
I82
tp1265
atp1266
a(S'img_226.jpg'
p1267
(lp1268
(I584
I399
I95
I22
tp1269
atp1270
a(S'img_122.jpg'
p1271
(lp1272
(I184
I204
I61
I21
tp1273
a(I185
I228
I64
I20
tp1274
a(I261
I224
I46
I20
tp1275
a(I191
I290
I43
I18
tp1276
a(I242
I293
I53
I18
tp1277
a(I161
I347
I82
I22
tp1278
a(I251
I351
I35
I16
tp1279
atp1280
a(S'img_60.jpg'
p1281
(lp1282
(I27
I49
I1081
I257
tp1283
a(I455
I85
I698
I212
tp1284
atp1285
a(S'img_26.jpg'
p1286
(lp1287
g58
(g59
(I0
tp1288
g61
tp1289
Rp1290
(I1
(I4
tp1291
g68
I00
S'b\x912\xf0t\x87\x87@}\xce\xd4r\xe1\x9eh@T\xcb\x85\xbb\xfa\xc6_@\xaa\xe5\xc2]}\xd3J@'
p1292
tp1293
bag58
(g59
(I0
tp1294
g61
tp1295
Rp1296
(I1
(I4
tp1297
g68
I00
S'\x04O\xb7\xe6\x87\xb1\x84@\xe1\xe9\xd6\xfc\xb0Hq@a\xccJ\xa3GtR@\xe5\xfdu0f\xa5*@'
p1298
tp1299
bag58
(g59
(I0
tp1300
g61
tp1301
Rp1302
(I1
(I4
tp1303
g68
I00
S'M-\x17\xee\xea3\x87@2+\x8d\x1eQ\tq@dV\x1a=\xa2"W@5zD\x05\xd9\x86-@'
p1304
tp1305
bag58
(g59
(I0
tp1306
g61
tp1307
Rp1308
(I1
(I4
tp1309
g68
I00
S'[.\xdc\xd57I\x8a@t\xa6\x96\x0bw\xd5p@\xcdJ\xa3GT\x90@@]\xb8\xabo\x92\xf7.@'
p1310
tp1311
bag58
(g59
(I0
tp1312
g61
tp1313
Rp1314
(I1
(I4
tp1315
g68
I00
S'\xd4\xad\xf9a\x91\x02\x86@\xa1\xf8\x9c\xa9\xe5\xa2{@\r<\xdd\x9a\x1f\x16<@\x7fX\xa4\x0c<]2@'
p1316
tp1317
bag58
(g59
(I0
tp1318
g61
tp1319
Rp1320
(I1
(I4
tp1321
g68
I00
S'?gj\xb9p?\x87@\xcdJ\xa3GT\x80{@p\x92\xf7\xd7\xc1XM@\x1d\xc7q\x1c\xc7q3@'
p1322
tp1323
bag58
(g59
(I0
tp1324
g61
tp1325
Rp1326
(I1
(I4
tp1327
g68
I00
S'\x06\xd9\x86\x80\xe2_\x89@\xea\xd6\xfc\xb0Hi{@\x1d\xc7q\x1c\xc7qS@\xa7\x96\x0bw\xf5\xcd3@'
p1328
tp1329
bag58
(g59
(I0
tp1330
g61
tp1331
Rp1332
(I1
(I4
tp1333
g68
I00
S"B\xb6!\xa0\xf8T\x83@E\x05\xd9\x86\x80\xd2\x7f@\xff:\x18\xb3\xd2\x88S@\x81\xe2s\xa6\x96\x0b'@"
p1334
tp1335
bag58
(g59
(I0
tp1336
g61
tp1337
Rp1338
(I1
(I4
tp1339
g68
I00
S"\xb9\xabo\x92\xf7\x0b\x88@[.\xdc\xd57\xc1\x7f@\xa9 \xdb\x10P|8@\x81\xe2s\xa6\x96\x0b'@"
p1340
tp1341
bag58
(g59
(I0
tp1342
g61
tp1343
Rp1344
(I1
(I4
tp1345
g68
I00
S'\xe9\x11\x15d\x1b\x12\x89@T\xcb\x85\xbb\xfa\xc6\x7f@]\xb8\xabo\x92\xf7>@Y\xa4\x0c<\xdd\x9a%@'
p1346
tp1347
bag58
(g59
(I0
tp1348
g61
tp1349
Rp1350
(I1
(I4
tp1351
g68
I00
S'[.\xdc\xd57I\x8a@j\xf4\x88\n\xb2\xb5\x7f@3\xf0tk~\xd8H@!\xdb\x10P|\xce,@'
p1352
tp1353
bag58
(g59
(I0
tp1354
g61
tp1355
Rp1356
(I1
(I4
tp1357
g68
I00
S'\x97\x0bw\xf5M\x82\x81@v0f\xa5\xd1\x0b\x80@qW\xdf$\xef\xaf/@\xa9 \xdb\x10P|\x18@'
p1358
tp1359
bag58
(g59
(I0
tp1360
g61
tp1361
Rp1362
(I1
(I4
tp1363
g68
I00
S'\xdc\x10P|\xce\xfc\x85@T\xcb\x85\xbb\xfa\xc6\x7f@5zD\x05\xd9\x86M@5zD\x05\xd9\x86-@'
p1364
tp1365
batp1366
a(S'img_187.jpg'
p1367
(lp1368
(I725
I56
I164
I154
tp1369
a(I93
I83
I359
I114
tp1370
atp1371
a(S'img_124.jpg'
p1372
(lp1373
(I276
I328
I129
I27
tp1374
a(I285
I378
I45
I26
tp1375
a(I343
I380
I53
I21
tp1376
a(I246
I428
I55
I28
tp1377
a(I318
I425
I20
I25
tp1378
a(I353
I420
I79
I31
tp1379
atp1380
a(S'img_18.jpg'
p1381
(lp1382
(I317
I197
I202
I49
tp1383
a(I301
I245
I91
I42
tp1384
a(I413
I253
I111
I42
tp1385
a(I340
I295
I142
I43
tp1386
atp1387
a(S'img_41.jpg'
p1388
(lp1389
(I68
I164
I397
I102
tp1390
a(I171
I263
I216
I79
tp1391
atp1392
a(S'img_77.jpg'
p1393
(lp1394
(I164
I553
I402
I175
tp1395
a(I629
I552
I472
I159
tp1396
atp1397
a(S'img_128.jpg'
p1398
(lp1399
(I83
I82
I46
I19
tp1400
a(I134
I84
I63
I39
tp1401
a(I211
I79
I28
I20
tp1402
a(I200
I105
I51
I20
tp1403
atp1404
a(S'img_43.jpg'
p1405
(lp1406
(I187
I62
I42
I43
tp1407
a(I202
I88
I58
I38
tp1408
a(I171
I160
I70
I17
tp1409
a(I255
I157
I17
I22
tp1410
atp1411
a(S'img_78.jpg'
p1412
(lp1413
(I315
I457
I140
I49
tp1414
a(I272
I520
I212
I73
tp1415
atp1416
a(S'img_34.jpg'
p1417
(lp1418
g58
(g59
(I0
tp1419
g61
tp1420
Rp1421
(I1
(I4
tp1422
g68
I00
S'\xf7\x12\xdaKh\xafv@\x00\x00\x00\x00\x00\x00\x00\x00j\xf4\x88\n\xb2\t\x82@\xf6M\xf2\xfe:Ho@'
p1423
tp1424
bag58
(g59
(I0
tp1425
g61
tp1426
Rp1427
(I1
(I4
tp1428
g68
I00
S'[.\xdc\xd57Iz@\x8a\n\xb2\r\x01\xd5n@\xaf\xbeI\xde_\x97{@\xfd\xb0H\x19x\xcai@'
p1429
tp1430
bag58
(g59
(I0
tp1431
g61
tp1432
Rp1433
(I1
(I4
tp1434
g68
I00
S'\x82\xa7[\xf3\xc3\xda~@^}\x93\xbc\xbf\xe6\x80@\x90\xa8 \xdb\x10\x88q@5zD\x05\xd9\x86]@'
p1435
tp1436
batp1437
a(S'img_147.jpg'
p1438
(lp1439
(I61
I722
I504
I134
tp1440
a(I652
I715
I580
I142
tp1441
atp1442
a(S'img_111.jpg'
p1443
(lp1444
(I231
I199
I332
I56
tp1445
a(I264
I275
I299
I53
tp1446
a(I275
I349
I284
I50
tp1447
atp1448
a(S'img_217.jpg'
p1449
(lp1450
(I331
I355
I478
I55
tp1451
a(I872
I350
I146
I42
tp1452
a(I447
I458
I166
I47
tp1453
a(I708
I450
I209
I48
tp1454
atp1455
a(S'img_194.jpg'
p1456
(lp1457
(I271
I95
I80
I40
tp1458
a(I375
I96
I142
I41
tp1459
a(I86
I153
I263
I94
tp1460
a(I76
I271
I460
I100
tp1461
atp1462
a(S'img_209.jpg'
p1463
(lp1464
(I236
I544
I131
I24
tp1465
a(I381
I548
I54
I23
tp1466
a(I450
I550
I82
I30
tp1467
atp1468
a(S'img_167.jpg'
p1469
(lp1470
(I386
I158
I35
I10
tp1471
atp1472
a(S'img_30.jpg'
p1473
(lp1474
(I192
I369
I217
I134
tp1475
a(I474
I244
I697
I326
tp1476
a(I156
I581
I265
I68
tp1477
a(I511
I575
I623
I87
tp1478
atp1479
a(S'img_52.jpg'
p1480
(lp1481
(I313
I96
I149
I67
tp1482
a(I519
I93
I144
I69
tp1483
a(I722
I94
I187
I68
tp1484
atp1485
a(S'img_146.jpg'
p1486
(lp1487
(I50
I269
I554
I56
tp1488
atp1489
a(S'img_87.jpg'
p1490
(lp1491
(I369
I159
I326
I55
tp1492
a(I742
I161
I241
I54
tp1493
a(I270
I678
I219
I52
tp1494
a(I536
I682
I50
I49
tp1495
atp1496
a(S'img_2.jpg'
p1497
(lp1498
(I203
I250
I51
I38
tp1499
a(I55
I238
I340
I154
tp1500
a(I167
I210
I105
I23
tp1501
a(I193
I348
I105
I32
tp1502
atp1503
a(S'img_83.jpg'
p1504
(lp1505
(I558
I317
I292
I72
tp1506
a(I462
I412
I483
I72
tp1507
a(I568
I576
I287
I74
tp1508
a(I305
I347
I63
I113
tp1509
atp1510
a(S'img_24.jpg'
p1511
(lp1512
(I278
I125
I162
I51
tp1513
a(I276
I193
I164
I31
tp1514
a(I361
I528
I82
I11
tp1515
atp1516
a(S'img_28.jpg'
p1517
(lp1518
(I224
I35
I180
I49
tp1519
a(I64
I85
I501
I128
tp1520
a(I152
I227
I311
I91
tp1521
a(I141
I329
I327
I104
tp1522
atp1523
a(S'img_86.jpg'
p1524
(lp1525
(I149
I710
I184
I43
tp1526
a(I147
I759
I59
I10
tp1527
a(I159
I795
I101
I11
tp1528
a(I267
I797
I49
I9
tp1529
a(I652
I725
I15
I24
tp1530
atp1531
a(S'img_58.jpg'
p1532
(lp1533
(I170
I363
I543
I132
tp1534
a(I111
I502
I1055
I455
tp1535
a(I258
I850
I320
I78
tp1536
a(I606
I852
I97
I64
tp1537
a(I732
I849
I111
I65
tp1538
a(I962
I852
I83
I28
tp1539
a(I927
I881
I156
I29
tp1540
a(I1034
I497
I16
I7
tp1541
a(I1054
I421
I130
I134
tp1542
atp1543
a(S'img_212.jpg'
p1544
(lp1545
(I99
I131
I139
I37
tp1546
a(I97
I172
I138
I39
tp1547
a(I130
I212
I76
I34
tp1548
a(I130
I251
I76
I31
tp1549
atp1550
a(S'img_200.jpg'
p1551
(lp1552
(I233
I339
I64
I20
tp1553
a(I307
I335
I76
I22
tp1554
a(I392
I328
I67
I23
tp1555
atp1556
a(S'img_127.jpg'
p1557
(lp1558
(I888
I673
I154
I38
tp1559
a(I912
I720
I104
I35
tp1560
a(I921
I759
I84
I33
tp1561
atp1562
a(S'img_1.jpg'
p1563
(lp1564
(I38
I43
I882
I172
tp1565
a(I275
I264
I390
I186
tp1566
a(I0
I699
I77
I131
tp1567
a(I128
I705
I355
I134
tp1568
a(I542
I710
I396
I131
tp1569
a(I87
I884
I370
I137
tp1570
a(I517
I919
I314
I105
tp1571
a(I166
I1095
I302
I136
tp1572
a(I530
I1069
I213
I137
tp1573
atp1574
a(S'img_216.jpg'
p1575
(lp1576
(I467
I357
I46
I65
tp1577
a(I553
I360
I107
I66
tp1578
a(I699
I364
I48
I66
tp1579
a(I583
I464
I46
I64
tp1580
atp1581
a(S'img_211.jpg'
p1582
(lp1583
(I567
I508
I152
I48
tp1584
a(I528
I426
I230
I46
tp1585
a(I608
I354
I121
I17
tp1586
atp1587
a(S'img_202.jpg'
p1588
(lp1589
(I238
I146
I152
I30
tp1590
atp1591
a(S'img_156.jpg'
p1592
(lp1593
(I38
I206
I88
I57
tp1594
a(I133
I228
I11
I9
tp1595
a(I151
I195
I400
I66
tp1596
atp1597
a(S'img_39.jpg'
p1598
(lp1599
g58
(g59
(I0
tp1600
g61
tp1601
Rp1602
(I1
(I4
tp1603
g68
I00
S'\xf8\xd7\xc1\x98\x95\xd2\x80@\x8c\x94\x81\xa7[\x93h@\xbapW\xdf$/R@E\x05\xd9\x86\x80\xe24@'
p1604
tp1605
bag58
(g59
(I0
tp1606
g61
tp1607
Rp1608
(I1
(I4
tp1609
g68
I00
S'\xd3\xe8\x11\x15d\xef\x80@\r<\xdd\x9a\x1f\x16l@I\x19x\xba5?.@\xcf\xd4r\xe1\xae>5@'
p1610
tp1611
bag58
(g59
(I0
tp1612
g61
tp1613
Rp1614
(I1
(I4
tp1615
g68
I00
S'?gj\xb9p\xc7\x81@\xb5\x97\xd0^B[l@\xcf\xd4r\xe1\xae>E@\xf7\x12\xdaKh\xaf6@'
p1616
tp1617
bag58
(g59
(I0
tp1618
g61
tp1619
Rp1620
(I1
(I4
tp1621
g68
I00
S'\x841+\x8d\x1ee\x80@;\x18\xb3\xd2\xe89p@\xbe\x84\xf6\x12\xda\x8b[@\xbd\xbf\x0e\xc6\xac49@'
p1622
tp1623
bag58
(g59
(I0
tp1624
g61
tp1625
Rp1626
(I1
(I4
tp1627
g68
I00
S'$*\xc86\x04\xb0\x80@\xd0\x99Z.\xdc\x1dr@\xf6M\xf2\xfe:XD@G\x8f\xa8 \xdb\x909@'
p1628
tp1629
bag58
(g59
(I0
tp1630
g61
tp1631
Rp1632
(I1
(I4
tp1633
g68
I00
S'\x11P|\xce\xd4N\x82@\xa4GT\x90m@r@\x94\xbc\xbf\x0e\xc6lE@\xf7\x12\xdaKh\xaf6@'
p1634
tp1635
bag58
(g59
(I0
tp1636
g61
tp1637
Rp1638
(I1
(I4
tp1639
g68
I00
S'\xd4\xad\xf9a\x91\x8a\x80@\xd8\xc1\x98\x95Fot@\xa1\xf8\x9c\xa9\xe5\xa2[@\xa9 \xdb\x10P|8@'
p1640
tp1641
bag58
(g59
(I0
tp1642
g61
tp1643
Rp1644
(I1
(I4
tp1645
g68
I00
S'C{\t\xed%4\x80@\xd4\xad\xf9a\x91\x02v@\x83lC@\xf1\xc9`@\r<\xdd\x9a\x1f\x16<@'
p1646
tp1647
bag58
(g59
(I0
tp1648
g61
tp1649
Rp1650
(I1
(I4
tp1651
g68
I00
S'\xe1\xe9\xd6\xfc\xb0H\x81@5zD\x05\xd9\x0ex@5zD\x05\xd9\x86-@\xe3s\xa6\x96\x0b\xf75@'
p1652
tp1653
bag58
(g59
(I0
tp1654
g61
tp1655
Rp1656
(I1
(I4
tp1657
g68
I00
S'T\xcb\x85\xbb\xfa\x1a\x82@\t(>gj1x@\n\xed%\xb4\x97\x10E@\xf7\x12\xdaKh\xaf6@'
p1658
tp1659
batp1660
a(S'img_123.jpg'
p1661
(lp1662
(I71
I343
I640
I197
tp1663
a(I785
I335
I458
I204
tp1664
atp1665
a(S'img_17.jpg'
p1666
(lp1667
g58
(g59
(I0
tp1668
g61
tp1669
Rp1670
(I1
(I4
tp1671
g68
I00
S'\xaa\xe5\xc2]}\xd3Z@I\x19x\xba5Os@+\xc86\x04\x14\xffk@\xf6M\xf2\xfe:XD@'
p1672
tp1673
bag58
(g59
(I0
tp1674
g61
tp1675
Rp1676
(I1
(I4
tp1677
g68
I00
S'\xb4\xd2\xe8\x11\x15\x04Z@\xc7\xac4zDex@\x841+\x8d\x1e\x11n@1f\xa5\xd1#*D@'
p1678
tp1679
bag58
(g59
(I0
tp1680
g61
tp1681
Rp1682
(I1
(I4
tp1683
g68
I00
S'\xdbKh/\xa1\x1dY@.\x17\xee\xea\x9b\x8c}@\xd2#*\xc86Dl@1f\xa5\xd1#*D@'
p1684
tp1685
bag58
(g59
(I0
tp1686
g61
tp1687
Rp1688
(I1
(I4
tp1689
g68
I00
S'\xe48\x8e\xe38NX@\xbc\xfa&y\x7fe\x81@@,R\x06\x9e\x0eo@\xa7\x96\x0bw\xf5\xcdC@'
p1690
tp1691
bag58
(g59
(I0
tp1692
g61
tp1693
Rp1694
(I1
(I4
tp1695
g68
I00
S')>gj\xb9PW@VUUUU\r\x84@)>gj\xb9Pg@X\xdf$\xef\xafCC@'
p1696
tp1697
bag58
(g59
(I0
tp1698
g61
tp1699
Rp1700
(I1
(I4
tp1701
g68
I00
S'\x05\x14\x9f3\xb5Lt@\\\xf3\xc3"e\xe4\x89@mC@\xf19SF@\x95\x81\xa7[\xf3\xc37@'
p1702
tp1703
bag58
(g59
(I0
tp1704
g61
tp1705
Rp1706
(I1
(I4
tp1707
g68
I00
S'\x96F\x8f\xa8 \xa3t@\x94\xbc\xbf\x0e\xc6\xe4\x8a@\xbfI\xde_\x07\xe3=@\x1e\x8cYi\xf4\xc8E@'
p1708
tp1709
bag58
(g59
(I0
tp1710
g61
tp1711
Rp1712
(I1
(I4
tp1713
g68
I00
S'5zD\x05\xd9\x96b@\xaa\xe5\xc2]}\xd3\x8a@\xa9 \xdb\x10P|8@\xcf\xd4r\xe1\xae>E@'
p1714
tp1715
bag58
(g59
(I0
tp1716
g61
tp1717
Rp1718
(I1
(I4
tp1719
g68
I00
S'\x85\xf6\x12\xdaK\x00\x80@\xfaa\x912\xf0\xf8\x8a@\xbfI\xde_\x07\xe3=@mC@\xf19SF@'
p1720
tp1721
bag58
(g59
(I0
tp1722
g61
tp1723
Rp1724
(I1
(I4
tp1725
g68
I00
S'\x87\x80\xe2s\xa6\x9e\x7f@?gj\xb9p\xfb\x89@\x1d\xc7q\x1c\xc7qC@\x0b\xb2\r\x01\xc5g7@'
p1726
tp1727
bag58
(g59
(I0
tp1728
g61
tp1729
Rp1730
(I1
(I4
tp1731
g68
I00
S'\xdbKh/\xa1a\x86@\x82\xa7[\xf3\xc3\xeas@\xb8\xe6\x87E\xcaph@\x7fX\xa4\x0c<]B@'
p1732
tp1733
bag58
(g59
(I0
tp1734
g61
tp1735
Rp1736
(I1
(I4
tp1737
g68
I00
S'HT\x90m\x08p\x86@\x9aZ.\xdc\xd5\xff}@0\xa1\xbd\x84\xf6\xd2A@k\xb9pW\xdf\xa4A@'
p1738
tp1739
bag58
(g59
(I0
tp1740
g61
tp1741
Rp1742
(I1
(I4
tp1743
g68
I00
S"2+\x8d\x1eQ\x81\x86@\xb5\x97\xd0^B'\x84@0\xa1\xbd\x84\xf6\xd2A@\xf5\x88\n\xb2\r\x01B@"
p1744
tp1745
bag58
(g59
(I0
tp1746
g61
tp1747
Rp1748
(I1
(I4
tp1749
g68
I00
S'\xa03\xb5\\\xb8\x8f\x86@\xf7\x12\xdaKhk\x89@\x7fX\xa4\x0c<]B@\x7fX\xa4\x0c<]B@'
p1750
tp1751
batp1752
a(S'img_190.jpg'
p1753
(lp1754
(I17
I617
I28
I12
tp1755
a(I50
I615
I39
I14
tp1756
a(I118
I294
I84
I30
tp1757
a(I210
I285
I64
I31
tp1758
a(I124
I339
I61
I28
tp1759
a(I195
I329
I71
I34
tp1760
a(I118
I394
I13
I19
tp1761
a(I140
I380
I101
I32
tp1762
a(I252
I378
I21
I29
tp1763
a(I132
I425
I125
I34
tp1764
atp1765
a(S'img_85.jpg'
p1766
(lp1767
(I590
I468
I233
I42
tp1768
atp1769
a(S'img_32.jpg'
p1770
(lp1771
(I61
I55
I511
I54
tp1772
a(I44
I107
I536
I85
tp1773
a(I127
I209
I47
I18
tp1774
a(I219
I212
I117
I18
tp1775
a(I380
I216
I114
I18
tp1776
a(I120
I304
I151
I37
tp1777
a(I314
I309
I180
I38
tp1778
a(I132
I357
I348
I31
tp1779
atp1780
a(S'img_173.jpg'
p1781
(lp1782
(I34
I260
I106
I13
tp1783
a(I148
I260
I99
I14
tp1784
a(I259
I260
I71
I15
tp1785
atp1786
a(S'img_84.jpg'
p1787
(lp1788
(I604
I365
I375
I116
tp1789
a(I618
I479
I367
I51
tp1790
a(I432
I411
I116
I33
tp1791
a(I202
I468
I58
I63
tp1792
a(I0
I485
I83
I78
tp1793
a(I14
I786
I23
I23
tp1794
atp1795
a(S'img_164.jpg'
p1796
(lp1797
(I215
I94
I30
I29
tp1798
atp1799
a(S'img_161.jpg'
p1800
(lp1801
(I103
I206
I276
I63
tp1802
a(I73
I278
I337
I63
tp1803
a(I67
I351
I43
I14
tp1804
a(I125
I351
I90
I14
tp1805
a(I229
I351
I42
I14
tp1806
a(I287
I352
I27
I13
tp1807
a(I329
I352
I86
I15
tp1808
atp1809
a(S'img_132.jpg'
p1810
(lp1811
(I169
I429
I162
I35
tp1812
a(I338
I428
I34
I29
tp1813
a(I381
I428
I98
I29
tp1814
a(I167
I582
I44
I27
tp1815
a(I222
I581
I95
I29
tp1816
a(I165
I636
I45
I21
tp1817
a(I221
I635
I93
I23
tp1818
a(I167
I689
I88
I28
tp1819
a(I273
I690
I104
I28
tp1820
a(I393
I690
I97
I28
tp1821
a(I167
I724
I43
I21
tp1822
a(I221
I724
I89
I21
tp1823
a(I322
I724
I76
I22
tp1824
a(I408
I724
I92
I23
tp1825
a(I168
I777
I102
I22
tp1826
a(I281
I777
I70
I23
tp1827
a(I169
I830
I78
I22
tp1828
a(I259
I831
I48
I22
tp1829
a(I320
I831
I89
I28
tp1830
a(I421
I832
I60
I28
tp1831
a(I66
I878
I251
I31
tp1832
a(I340
I884
I73
I26
tp1833
a(I425
I886
I94
I26
tp1834
a(I172
I988
I120
I22
tp1835
a(I302
I991
I15
I20
tp1836
atp1837
a(S'img_196.jpg'
p1838
(lp1839
(I53
I495
I34
I10
tp1840
a(I94
I497
I38
I10
tp1841
a(I136
I499
I35
I11
tp1842
a(I53
I518
I24
I10
tp1843
a(I84
I520
I48
I13
tp1844
a(I138
I523
I13
I9
tp1845
a(I158
I525
I44
I11
tp1846
atp1847
a(S'img_172.jpg'
p1848
(lp1849
(I183
I303
I72
I35
tp1850
a(I288
I301
I249
I37
tp1851
a(I183
I352
I177
I25
tp1852
a(I376
I352
I161
I24
tp1853
a(I331
I391
I90
I35
tp1854
atp1855
a(S'img_14.jpg'
p1856
(lp1857
(I214
I36
I205
I35
tp1858
a(I116
I102
I205
I35
tp1859
a(I336
I109
I35
I22
tp1860
a(I386
I103
I130
I35
tp1861
a(I20
I154
I148
I28
tp1862
a(I181
I160
I40
I22
tp1863
a(I236
I161
I20
I21
tp1864
a(I270
I153
I111
I29
tp1865
a(I397
I154
I59
I28
tp1866
a(I469
I161
I60
I21
tp1867
a(I544
I155
I67
I28
tp1868
a(I121
I206
I31
I27
tp1869
a(I166
I212
I19
I21
tp1870
a(I198
I205
I127
I28
tp1871
a(I341
I205
I169
I28
tp1872
a(I120
I262
I50
I15
tp1873
a(I178
I262
I64
I15
tp1874
a(I250
I263
I31
I14
tp1875
a(I288
I263
I16
I14
tp1876
a(I312
I263
I26
I14
tp1877
a(I346
I263
I83
I14
tp1878
a(I436
I262
I27
I15
tp1879
a(I470
I262
I41
I15
tp1880
a(I211
I394
I59
I18
tp1881
a(I274
I394
I71
I22
tp1882
a(I350
I394
I70
I18
tp1883
a(I238
I422
I74
I20
tp1884
a(I320
I422
I74
I15
tp1885
atp1886
a(S'img_90.jpg'
p1887
(lp1888
(I5
I521
I202
I53
tp1889
a(I230
I521
I241
I52
tp1890
atp1891
a(S'img_157.jpg'
p1892
(lp1893
(I81
I123
I206
I59
tp1894
a(I80
I172
I96
I25
tp1895
a(I195
I187
I92
I25
tp1896
a(I144
I205
I43
I19
tp1897
a(I194
I210
I39
I18
tp1898
atp1899
a(S'img_54.jpg'
p1900
(lp1901
(I584
I497
I209
I60
tp1902
a(I47
I817
I426
I117
tp1903
a(I481
I831
I344
I109
tp1904
a(I838
I829
I408
I110
tp1905
a(I693
I230
I80
I23
tp1906
a(I1143
I227
I81
I22
tp1907
atp1908
a(S'img_22.jpg'
p1909
(lp1910
(I201
I186
I131
I45
tp1911
a(I245
I275
I9
I9
tp1912
a(I257
I274
I16
I10
tp1913
a(I277
I278
I13
I7
tp1914
a(I293
I277
I15
I11
tp1915
a(I312
I277
I15
I9
tp1916
a(I331
I279
I20
I8
tp1917
a(I358
I280
I16
I8
tp1918
a(I377
I281
I46
I11
tp1919
a(I428
I189
I61
I59
tp1920
atp1921
a(S'img_120.jpg'
p1922
(lp1923
(I15
I344
I119
I42
tp1924
a(I10
I398
I258
I58
tp1925
a(I318
I351
I129
I35
tp1926
a(I522
I354
I110
I35
tp1927
a(I316
I415
I51
I35
tp1928
a(I406
I416
I139
I37
tp1929
a(I584
I419
I54
I35
tp1930
atp1931
a(S'img_59.jpg'
p1932
(lp1933
(I535
I491
I228
I25
tp1934
a(I514
I528
I276
I33
tp1935
a(I527
I571
I150
I18
tp1936
a(I700
I573
I68
I17
tp1937
atp1938
a(S'img_94.jpg'
p1939
(lp1940
(I331
I497
I142
I45
tp1941
a(I497
I497
I179
I44
tp1942
atp1943
a(S'img_31.jpg'
p1944
(lp1945
(I276
I256
I80
I22
tp1946
a(I101
I270
I336
I50
tp1947
a(I98
I325
I35
I12
tp1948
a(I142
I325
I37
I12
tp1949
a(I191
I325
I171
I16
tp1950
a(I373
I331
I66
I14
tp1951
atp1952
a(S'img_159.jpg'
p1953
(lp1954
(I26
I285
I45
I28
tp1955
a(I77
I289
I16
I26
tp1956
a(I101
I291
I58
I30
tp1957
atp1958
a(S'img_227.jpg'
p1959
(lp1960
(I174
I356
I302
I89
tp1961
a(I508
I357
I397
I88
tp1962
a(I73
I465
I249
I182
tp1963
a(I391
I464
I616
I185
tp1964
atp1965
a(S'img_185.jpg'
p1966
(lp1967
(I133
I578
I48
I27
tp1968
a(I209
I562
I154
I60
tp1969
a(I408
I546
I205
I54
tp1970
atp1971
a(S'img_91.jpg'
p1972
(lp1973
(I487
I197
I146
I38
tp1974
a(I670
I196
I132
I38
tp1975
a(I491
I484
I48
I28
tp1976
a(I556
I480
I249
I31
tp1977
a(I523
I529
I96
I35
tp1978
a(I635
I527
I69
I28
tp1979
a(I717
I525
I70
I30
tp1980
a(I591
I571
I91
I30
tp1981
a(I506
I635
I122
I29
tp1982
a(I641
I635
I36
I28
tp1983
a(I690
I633
I93
I29
tp1984
a(I460
I682
I136
I37
tp1985
a(I612
I679
I31
I29
tp1986
a(I658
I678
I179
I37
tp1987
a(I464
I769
I93
I20
tp1988
a(I568
I768
I162
I24
tp1989
a(I740
I766
I94
I19
tp1990
atp1991
a(S'img_33.jpg'
p1992
(lp1993
(I550
I335
I4
I6
tp1994
a(I252
I185
I19
I18
tp1995
a(I353
I183
I23
I19
tp1996
a(I335
I215
I11
I6
tp1997
a(I87
I237
I444
I101
tp1998
a(I219
I353
I194
I24
tp1999
atp2000
a(S'img_113.jpg'
p2001
(lp2002
(I188
I310
I51
I16
tp2003
a(I183
I332
I63
I21
tp2004
a(I74
I454
I47
I27
tp2005
a(I138
I462
I125
I27
tp2006
a(I280
I456
I75
I28
tp2007
a(I63
I502
I113
I26
tp2008
a(I194
I502
I59
I27
tp2009
a(I271
I504
I95
I26
tp2010
atp2011
a(S'img_108.jpg'
p2012
(lp2013
(I38
I428
I270
I51
tp2014
a(I322
I428
I265
I51
tp2015
atp2016
a(S'img_189.jpg'
p2017
(lp2018
(I90
I110
I438
I83
tp2019
a(I89
I197
I180
I54
tp2020
a(I295
I204
I233
I50
tp2021
atp2022
a(S'img_109.jpg'
p2023
(lp2024
(I55
I31
I436
I82
tp2025
atp2026
a(S'img_221.jpg'
p2027
(lp2028
(I260
I547
I63
I33
tp2029
a(I372
I475
I139
I45
tp2030
a(I550
I546
I74
I32
tp2031
a(I347
I575
I188
I201
tp2032
a(I412
I812
I24
I29
tp2033
atp2034
a(S'img_6.jpg'
p2035
(lp2036
(I41
I124
I575
I132
tp2037
a(I90
I257
I346
I135
tp2038
atp2039
a(S'img_106.jpg'
p2040
(lp2041
(I124
I224
I226
I89
tp2042
a(I388
I287
I147
I30
tp2043
atp2044
a(S'img_130.jpg'
p2045
(lp2046
(I300
I248
I307
I95
tp2047
a(I631
I307
I57
I40
tp2048
a(I717
I313
I153
I62
tp2049
a(I918
I345
I42
I46
tp2050
a(I293
I307
I228
I85
tp2051
a(I551
I346
I60
I49
tp2052
a(I291
I370
I307
I85
tp2053
a(I623
I415
I130
I60
tp2054
a(I944
I460
I18
I42
tp2055
a(I470
I507
I306
I97
tp2056
a(I460
I615
I159
I57
tp2057
a(I679
I592
I36
I57
tp2058
atp2059
a(S'img_168.jpg'
p2060
(lp2061
(I183
I263
I147
I29
tp2062
a(I353
I262
I148
I28
tp2063
atp2064
a(S'img_21.jpg'
p2065
(lp2066
(I102
I52
I65
I39
tp2067
a(I187
I49
I332
I42
tp2068
a(I145
I112
I127
I48
tp2069
a(I291
I110
I93
I39
tp2070
a(I400
I109
I92
I39
tp2071
a(I234
I168
I121
I41
tp2072
a(I124
I251
I159
I39
tp2073
a(I299
I252
I47
I37
tp2074
a(I363
I250
I121
I39
tp2075
a(I68
I311
I173
I46
tp2076
a(I262
I309
I40
I37
tp2077
a(I321
I307
I232
I48
tp2078
a(I75
I420
I117
I24
tp2079
a(I205
I419
I208
I31
tp2080
a(I424
I416
I120
I26
tp2081
atp2082
a(S'img_137.jpg'
p2083
(lp2084
(I629
I459
I136
I81
tp2085
a(I867
I362
I41
I22
tp2086
a(I871
I379
I40
I24
tp2087
atp2088
a(S'img_66.jpg'
p2089
(lp2090
(I233
I335
I402
I95
tp2091
a(I233
I850
I397
I54
tp2092
a(I276
I915
I315
I50
tp2093
atp2094
a(S'img_100.jpg'
p2095
(lp2096
(I693
I150
I53
I37
tp2097
a(I754
I167
I65
I44
tp2098
a(I706
I199
I59
I29
tp2099
a(I774
I222
I35
I20
tp2100
a(I149
I570
I548
I118
tp2101
a(I147
I700
I554
I75
tp2102
atp2103
a(S'img_68.jpg'
p2104
(lp2105
(I14
I129
I217
I61
tp2106
a(I258
I135
I236
I54
tp2107
a(I509
I144
I122
I42
tp2108
a(I25
I205
I47
I24
tp2109
a(I82
I212
I55
I16
tp2110
a(I147
I204
I90
I24
tp2111
a(I247
I210
I49
I16
tp2112
a(I306
I202
I108
I24
tp2113
a(I409
I201
I56
I31
tp2114
a(I469
I208
I54
I16
tp2115
a(I532
I199
I75
I24
tp2116
atp2117
a(S'img_114.jpg'
p2118
(lp2119
(I337
I236
I146
I57
tp2120
a(I334
I302
I153
I43
tp2121
a(I333
I356
I183
I53
tp2122
atp2123
a(S'img_125.jpg'
p2124
(lp2125
(I300
I366
I414
I68
tp2126
a(I801
I368
I191
I67
tp2127
a(I451
I476
I103
I37
tp2128
a(I571
I491
I23
I3
tp2129
a(I617
I479
I63
I36
tp2130
a(I700
I492
I24
I3
tp2131
a(I743
I478
I94
I38
tp2132
atp2133
a(S'img_92.jpg'
p2134
(lp2135
(I939
I771
I120
I36
tp2136
a(I1078
I780
I88
I42
tp2137
a(I926
I833
I186
I34
tp2138
a(I926
I865
I190
I36
tp2139
atp2140
a(S'img_25.jpg'
p2141
(lp2142
(I37
I178
I423
I54
tp2143
a(I114
I156
I347
I19
tp2144
atp2145
a(S'img_135.jpg'
p2146
(lp2147
(I197
I170
I149
I66
tp2148
a(I380
I169
I147
I65
tp2149
a(I216
I291
I140
I54
tp2150
a(I382
I288
I132
I46
tp2151
atp2152
a(S'img_74.jpg'
p2153
(lp2154
(I396
I161
I224
I36
tp2155
a(I159
I501
I633
I143
tp2156
a(I141
I728
I674
I126
tp2157
a(I129
I970
I694
I141
tp2158
atp2159
a(S'img_63.jpg'
p2160
(lp2161
(I584
I399
I95
I21
tp2162
atp2163
a(S'img_49.jpg'
p2164
(lp2165
g58
(g59
(I0
tp2166
g61
tp2167
Rp2168
(I1
(I4
tp2169
g68
I00
S'\x00\x00\x00\x00\x00`r@\x00\x00\x00\x00\x00\x12t@\x00\x00\x00\x00\x00\x84w@\x00\x00\x00\x00\x00@S@'
p2170
tp2171
bag58
(g59
(I0
tp2172
g61
tp2173
Rp2174
(I1
(I4
tp2175
g68
I00
S'\x00\x00\x00\x00\x00\xcb\x85@\x00\x00\x00\x00\x00 t@\x00\x00\x00\x00\x00\x18]@\x00\x00\x00\x00\x00\x08S@'
p2176
tp2177
bag58
(g59
(I0
tp2178
g61
tp2179
Rp2180
(I1
(I4
tp2181
g68
I00
S'\x00\x00\x00\x00\x00\x1d\x8a@\x00\x00\x00\x00\x00 t@\x00\x00\x00\x00\x00\xc0v@\x00\x00\x00\x00\x00\xb0S@'
p2182
tp2183
bag58
(g59
(I0
tp2184
g61
tp2185
Rp2186
(I1
(I4
tp2187
g68
I00
S'\x00\x00\x00\x00\x00nr@\x00\x00\x00\x00\x00\x8ay@\x00\x00\x00\x00\x00@C@\x00\x00\x00\x00\x00@3@'
p2188
tp2189
bag58
(g59
(I0
tp2190
g61
tp2191
Rp2192
(I1
(I4
tp2193
g68
I00
S'\x00\x00\x00\x00\x00~u@\x00\x00\x00\x00\x00\x98y@\x00\x00\x00\x00\x00\x80/@\x00\x00\x00\x00\x00\xa00@'
p2194
tp2195
bag58
(g59
(I0
tp2196
g61
tp2197
Rp2198
(I1
(I4
tp2199
g68
I00
S'\x00\x00\x00\x00\x00\xd3\x83@\x00\x00\x00\x00\x00\xd0y@\x00\x00\x00\x00\x00@:@\x00\x00\x00\x00\x00\x00,@'
p2200
tp2201
bag58
(g59
(I0
tp2202
g61
tp2203
Rp2204
(I1
(I4
tp2205
g68
I00
S'\x00\x00\x00\x00\x00\xf2\x84@\x00\x00\x00\x00\x00ny@\x00\x00\x00\x00\x00\xe0E@\x00\x00\x00\x00\x00\x005@'
p2206
tp2207
bag58
(g59
(I0
tp2208
g61
tp2209
Rp2210
(I1
(I4
tp2211
g68
I00
S'\x00\x00\x00\x00\x00\x96\x86@\x00\x00\x00\x00\x00|y@\x00\x00\x00\x00\x00\xc0=@\x00\x00\x00\x00\x00@3@'
p2212
tp2213
bag58
(g59
(I0
tp2214
g61
tp2215
Rp2216
(I1
(I4
tp2217
g68
I00
S'\x00\x00\x00\x00\x00\xca\x87@\x00\x00\x00\x00\x00\x8ay@\x00\x00\x00\x00\x00\xc0M@\x00\x00\x00\x00\x00`2@'
p2218
tp2219
bag58
(g59
(I0
tp2220
g61
tp2221
Rp2222
(I1
(I4
tp2223
g68
I00
S'\x00\x00\x00\x00\x00\xde\x89@\x00\x00\x00\x00\x00\xb4y@\x00\x00\x00\x00\x00hP@\x00\x00\x00\x00\x00\x80/@'
p2224
tp2225
bag58
(g59
(I0
tp2226
g61
tp2227
Rp2228
(I1
(I4
tp2229
g68
I00
S'\x00\x00\x00\x00\x80\xb7\x92@\x00\x00\x00\x00\x00\xf2\x8b@\x00\x00\x00\x00\x00\x88V@\x00\x00\x00\x00\x00\xe05@'
p2230
tp2231
bag58
(g59
(I0
tp2232
g61
tp2233
Rp2234
(I1
(I4
tp2235
g68
I00
S'\x00\x00\x00\x00\x80\x15\x94@\x00\x00\x00\x00\x00\xc8\x8b@\x00\x00\x00\x00\x00\x00%@\x00\x00\x00\x00\x00\x00\x15@'
p2236
tp2237
batp2238
a(S'img_148.jpg'
p2239
(lp2240
(I266
I168
I22
I78
tp2241
a(I223
I397
I47
I79
tp2242
a(I207
I624
I46
I75
tp2243
a(I189
I842
I54
I73
tp2244
a(I186
I1050
I46
I68
tp2245
a(I752
I213
I45
I75
tp2246
a(I731
I441
I50
I76
tp2247
a(I705
I666
I47
I75
tp2248
a(I686
I877
I45
I70
tp2249
atp2250
a(S'img_47.jpg'
p2251
(lp2252
(I52
I157
I850
I78
tp2253
a(I251
I242
I113
I74
tp2254
a(I185
I304
I67
I77
tp2255
a(I414
I300
I487
I110
tp2256
a(I482
I402
I344
I75
tp2257
atp2258
a(S'img_5.jpg'
p2259
(lp2260
(I146
I169
I468
I203
tp2261
a(I22
I226
I87
I34
tp2262
a(I123
I235
I28
I17
tp2263
a(I166
I235
I37
I27
tp2264
a(I217
I228
I89
I30
tp2265
atp2266
a(S'img_40.jpg'
p2267
(lp2268
g58
(g59
(I0
tp2269
g61
tp2270
Rp2271
(I1
(I4
tp2272
g68
I00
S'\x00\x00\x00\x00\x00\x8b\x80@\x00\x00\x00\x00\x00\x08S@\x00\x00\x00\x00\x00\xa0N@\x00\x00\x00\x00\x00`9@'
p2273
tp2274
bag58
(g59
(I0
tp2275
g61
tp2276
Rp2277
(I1
(I4
tp2278
g68
I00
S'\x00\x00\x00\x00\x00U\x83@\x00\x00\x00\x00\x00`R@\x00\x00\x00\x00\x00lv@\x00\x00\x00\x00\x00 ;@'
p2279
tp2280
bag58
(g59
(I0
tp2281
g61
tp2282
Rp2283
(I1
(I4
tp2284
g68
I00
S'\x00\x00\x00\x00\x00A\x8f@\x00\x00\x00\x00\x00`R@\x00\x00\x00\x00\x00\xe0L@\x00\x00\x00\x00\x00@:@'
p2285
tp2286
bag58
(g59
(I0
tp2287
g61
tp2288
Rp2289
(I1
(I4
tp2290
g68
I00
S'\x00\x00\x00\x00\x00\xdf\x80@\x00\x00\x00\x00\x00\xd8^@\x00\x00\x00\x00\x00\x06\x80@\x00\x00\x00\x00\x00\xf0Q@'
p2291
tp2292
bag58
(g59
(I0
tp2293
g61
tp2294
Rp2295
(I1
(I4
tp2296
g68
I00
S'\x00\x00\x00\x00\x00\x99\x80@\x00\x00\x00\x00\x00\xe0l@\x00\x00\x00\x00\x00v\x80@\x00\x00\x00\x00\x00\xb8Q@'
p2297
tp2298
bag58
(g59
(I0
tp2299
g61
tp2300
Rp2301
(I1
(I4
tp2302
g68
I00
S'\x00\x00\x00\x00\x00\x02\x81@\x00\x00\x00\x00\x00\xce\x86@\x00\x00\x00\x00\x00\xd0R@\x00\x00\x00\x00\x00\xf0H@'
p2303
tp2304
bag58
(g59
(I0
tp2305
g61
tp2306
Rp2307
(I1
(I4
tp2308
g68
I00
S'\x00\x00\x00\x00\x008\x85@\x00\x00\x00\x00\x00\xce\x86@\x00\x00\x00\x00\x00\x10O@\x00\x00\x00\x00\x00\x00L@'
p2309
tp2310
bag58
(g59
(I0
tp2311
g61
tp2312
Rp2313
(I1
(I4
tp2314
g68
I00
S'\x00\x00\x00\x00\x00D\x89@\x00\x00\x00\x00\x00\xb9\x86@\x00\x00\x00\x00\x00Pm@\x00\x00\x00\x00\x00@J@'
p2315
tp2316
bag58
(g59
(I0
tp2317
g61
tp2318
Rp2319
(I1
(I4
tp2320
g68
I00
S'\x00\x00\x00\x00\x00\x1ay@\x00\x00\x00\x00\x00d\x8f@\x00\x00\x00\x00\x00,q@\x00\x00\x00\x00\x00\x005@'
p2321
tp2322
bag58
(g59
(I0
tp2323
g61
tp2324
Rp2325
(I1
(I4
tp2326
g68
I00
S'\x00\x00\x00\x00\x00k\x88@\x00\x00\x00\x00\x00]\x8f@\x00\x00\x00\x00\x00Ry@\x00\x00\x00\x00\x00\x005@'
p2327
tp2328
batp2329
a(S'img_183.jpg'
p2330
(lp2331
(I266
I211
I35
I10
tp2332
a(I259
I226
I47
I10
tp2333
a(I44
I333
I235
I33
tp2334
a(I294
I340
I202
I33
tp2335
atp2336
a(S'img_61.jpg'
p2337
(lp2338
(I369
I445
I146
I59
tp2339
a(I570
I449
I202
I60
tp2340
a(I827
I452
I180
I64
tp2341
atp2342
a(S'img_143.jpg'
p2343
(lp2344
(I550
I532
I176
I72
tp2345
atp2346
a(S'img_3.jpg'
p2347
(lp2348
(I220
I138
I378
I148
tp2349
a(I46
I275
I493
I115
tp2350
atp2351
a(S'img_182.jpg'
p2352
(lp2353
(I366
I657
I102
I162
tp2354
a(I290
I437
I277
I106
tp2355
atp2356
a(S'img_7.jpg'
p2357
(lp2358
(I123
I17
I87
I41
tp2359
a(I229
I23
I280
I53
tp2360
a(I123
I70
I245
I50
tp2361
a(I130
I134
I181
I60
tp2362
a(I116
I217
I286
I54
tp2363
a(I123
I294
I236
I67
tp2364
a(I107
I388
I287
I57
tp2365
a(I429
I392
I168
I52
tp2366
atp2367
a(S'img_165.jpg'
p2368
(lp2369
(I174
I206
I63
I32
tp2370
a(I254
I215
I49
I31
tp2371
a(I318
I216
I83
I30
tp2372
a(I414
I217
I122
I23
tp2373
atp2374
a(S'img_155.jpg'
p2375
(lp2376
(I29
I225
I448
I39
tp2377
atp2378
a(S'img_208.jpg'
p2379
(lp2380
(I52
I658
I586
I133
tp2381
a(I703
I668
I555
I136
tp2382
atp2383
a(S'img_199.jpg'
p2384
(lp2385
(I271
I103
I141
I56
tp2386
a(I272
I579
I97
I20
tp2387
a(I719
I602
I20
I17
tp2388
atp2389
a(S'img_38.jpg'
p2390
(lp2391
g58
(g59
(I0
tp2392
g61
tp2393
Rp2394
(I1
(I4
tp2395
g68
I00
S'5zD\x05\xd9\x96\x82@Y\xa4\x0c<\xdd\x12{@\x0cw\xf5M\xf2\xbeI@1f\xa5\xd1#*4@'
p2396
tp2397
bag58
(g59
(I0
tp2398
g61
tp2399
Rp2400
(I1
(I4
tp2401
g68
I00
S'\xfd\xb0H\x19xR\x84@\xb2H\x19x\xba\xcdz@[.\xdc\xd57IZ@Y\xa4\x0c<\xdd\x9a5@'
p2402
tp2403
batp2404
a(S'img_96.jpg'
p2405
(lp2406
(I460
I441
I126
I39
tp2407
a(I623
I435
I456
I45
tp2408
a(I553
I528
I205
I41
tp2409
a(I791
I526
I211
I42
tp2410
atp2411
a(S'img_15.jpg'
p2412
(lp2413
(I208
I180
I396
I97
tp2414
a(I207
I285
I198
I36
tp2415
a(I430
I275
I172
I41
tp2416
atp2417
a(S'img_107.jpg'
p2418
(lp2419
(I7
I206
I268
I58
tp2420
a(I289
I209
I269
I58
tp2421
a(I64
I273
I99
I14
tp2422
a(I174
I274
I22
I13
tp2423
a(I212
I274
I91
I14
tp2424
a(I311
I275
I30
I14
tp2425
a(I351
I276
I44
I13
tp2426
a(I406
I276
I92
I15
tp2427
atp2428
a(S'img_136.jpg'
p2429
(lp2430
(I395
I147
I857
I185
tp2431
a(I408
I343
I391
I68
tp2432
a(I850
I347
I376
I70
tp2433
atp2434
a(S'img_29.jpg'
p2435
(lp2436
g58
(g59
(I0
tp2437
g61
tp2438
Rp2439
(I1
(I4
tp2440
g68
I00
S'S\x06\x9en\xcdo}@\xaco\x92\xf7\xd7\xd5\x81@\xa8[\xf3\xc3"%v@;\x18\xb3\xd2\xe8\xb1U@'
p2441
tp2442
bag58
(g59
(I0
tp2443
g61
tp2444
Rp2445
(I1
(I4
tp2446
g68
I00
S'9\x8e\xe38\x8e\xbf\x83@\xc1\xd3\xad\xf9a\xe5\x84@\xab\xaa\xaa\xaa\xaa*M@E\x05\xd9\x86\x80\xe24@'
p2447
tp2448
bag58
(g59
(I0
tp2449
g61
tp2450
Rp2451
(I1
(I4
tp2452
g68
I00
S'}\xce\xd4r\xe1\xe2\x85@\x05\x14\x9f3\xb5L\x84@\x98\xd0^B{\xd9c@l~X\xa4\x0c\xfcC@'
p2453
tp2454
bag58
(g59
(I0
tp2455
g61
tp2456
Rp2457
(I1
(I4
tp2458
g68
I00
S'3\xf0tk~\xa4\x90@\xc1\xd3\xad\xf9a)\x82@\xa7\x96\x0bw\xf5\xcd3@\x0b\xb2\r\x01\xc5g7@'
p2459
tp2460
bag58
(g59
(I0
tp2461
g61
tp2462
Rp2463
(I1
(I4
tp2464
g68
I00
S'2+\x8d\x1eQ\t\x91@\x1b=\xa2\x82l\x7f\x81@mC@\xf19S&@k\xb9pW\xdf\xa41@'
p2465
tp2466
batp2467
a(S'img_53.jpg'
p2468
(lp2469
(I21
I110
I465
I56
tp2470
a(I563
I119
I83
I48
tp2471
a(I720
I113
I494
I53
tp2472
a(I192
I194
I349
I57
tp2473
a(I617
I200
I132
I51
tp2474
a(I824
I195
I225
I53
tp2475
atp2476
a(S'img_56.jpg'
p2477
(lp2478
(I380
I483
I537
I113
tp2479
atp2480
a(S'img_191.jpg'
p2481
(lp2482
(I81
I99
I490
I130
tp2483
a(I15
I273
I245
I122
tp2484
a(I313
I275
I318
I117
tp2485
atp2486
a(S'img_150.jpg'
p2487
(lp2488
(I792
I595
I164
I65
tp2489
a(I741
I672
I258
I73
tp2490
atp2491
a(S'img_207.jpg'
p2492
(lp2493
(I431
I430
I103
I36
tp2494
a(I564
I430
I188
I37
tp2495
a(I431
I483
I361
I39
tp2496
a(I823
I486
I82
I36
tp2497
atp2498
a(S'img_69.jpg'
p2499
(lp2500
(I737
I258
I432
I580
tp2501
atp2502
a(S'img_16.jpg'
p2503
(lp2504
g58
(g59
(I0
tp2505
g61
tp2506
Rp2507
(I1
(I4
tp2508
g68
I00
S'\xc3]}\x93\xbc\x93\x89@\xd0\x99Z.\xdc\r}@\xaf\xbeI\xde_\xa7`@\xbd\xbf\x0e\xc6\xac4I@'
p2509
tp2510
bag58
(g59
(I0
tp2511
g61
tp2512
Rp2513
(I1
(I4
tp2514
g68
I00
S'\x841+\x8d\x1e\x99\x88@hj\xb9pW\x17\x80@}\xce\xd4r\xe1\x9eh@\xaa\xe5\xc2]}\xd3J@'
p2515
tp2516
batp2517
a(S'img_192.jpg'
p2518
(lp2519
(I44
I330
I212
I53
tp2520
a(I299
I324
I317
I61
tp2521
atp2522
a(S'img_198.jpg'
p2523
(lp2524
(I113
I913
I102
I15
tp2525
a(I226
I911
I87
I21
tp2526
a(I112
I953
I117
I18
tp2527
a(I239
I954
I22
I15
tp2528
a(I271
I950
I105
I22
tp2529
atp2530
a(S'img_166.jpg'
p2531
(lp2532
(I6
I225
I177
I68
tp2533
a(I237
I297
I47
I23
tp2534
a(I290
I304
I26
I19
tp2535
a(I322
I308
I25
I19
tp2536
a(I501
I224
I39
I61
tp2537
atp2538
a(S'img_115.jpg'
p2539
(lp2540
(I140
I12
I93
I37
tp2541
a(I260
I14
I210
I38
tp2542
a(I155
I55
I92
I20
tp2543
a(I261
I58
I118
I18
tp2544
a(I391
I58
I68
I18
tp2545
a(I19
I100
I185
I17
tp2546
a(I228
I101
I365
I19
tp2547
atp2548
a(S'img_12.jpg'
p2549
(lp2550
g58
(g59
(I0
tp2551
g61
tp2552
Rp2553
(I1
(I4
tp2554
g68
I00
S'\x0cw\xf5M\xf2Ft@l~X\xa4\x0c\xfcs@N\xf2\xfe:\x18\x13T@k\xb9pW\xdf\xa41@'
p2555
tp2556
bag58
(g59
(I0
tp2557
g61
tp2558
Rp2559
(I1
(I4
tp2560
g68
I00
S"\x9e\xa9\xe5\xc2]\x15z@@,R\x06\x9e\x1et@'y\x7f\x1d\x8c\xf9T@k\xb9pW\xdf\xa41@"
p2561
tp2562
bag58
(g59
(I0
tp2563
g61
tp2564
Rp2565
(I1
(I4
tp2566
g68
I00
S'o\xcd\x0f\x8b\x94\x11\x80@\x0cw\xf5M\xf2Ft@\x93\xf7\xd7\xc1\x98\x15S@\xe1\xe9\xd6\xfc\xb0H1@'
p2567
tp2568
batp2569
a(S'img_151.jpg'
p2570
(lp2571
(I169
I34
I289
I522
tp2572
atp2573
a(S'img_197.jpg'
p2574
(lp2575
(I188
I4
I85
I19
tp2576
a(I286
I10
I28
I14
tp2577
a(I326
I7
I131
I20
tp2578
a(I212
I62
I95
I22
tp2579
a(I320
I65
I113
I18
tp2580
atp2581
a(S'img_37.jpg'
p2582
(lp2583
g58
(g59
(I0
tp2584
g61
tp2585
Rp2586
(I1
(I4
tp2587
g68
I00
S'\x00\x00\x00\x00\x00\xc8t@\x00\x00\x00\x00\x008e@\x00\x00\x00\x00\x00\xf3\x89@\x00\x00\x00\x00\x004f@'
p2588
tp2589
bag58
(g59
(I0
tp2590
g61
tp2591
Rp2592
(I1
(I4
tp2593
g68
I00
S'\x00\x00\x00\x00\x00\xact@\x00\x00\x00\x00\x004v@\x00\x00\x00\x00\x00\xad\x89@\x00\x00\x00\x00\x00\xd8`@'
p2594
tp2595
bag58
(g59
(I0
tp2596
g61
tp2597
Rp2598
(I1
(I4
tp2599
g68
I00
S'\x00\x00\x00\x00\x00\x16\x83@\x00\x00\x00\x00\x00\xae~@\x00\x00\x00\x00\x00xS@\x00\x00\x00\x00\x000G@'
p2600
tp2601
bag58
(g59
(I0
tp2602
g61
tp2603
Rp2604
(I1
(I4
tp2605
g68
I00
S'\x00\x00\x00\x00\x00I\x86@\x00\x00\x00\x00\x00\x92~@\x00\x00\x00\x00\x00pu@\x00\x00\x00\x00\x00\x80H@'
p2606
tp2607
batp2608
a(S'img_88.jpg'
p2609
(lp2610
(I637
I134
I260
I45
tp2611
a(I772
I246
I268
I81
tp2612
a(I656
I422
I267
I95
tp2613
a(I780
I612
I268
I86
tp2614
a(I653
I776
I263
I55
tp2615
atp2616
a(S'img_93.jpg'
p2617
(lp2618
(I178
I173
I424
I194
tp2619
atp2620
a(S'img_82.jpg'
p2621
(lp2622
(I66
I283
I1213
I450
tp2623
atp2624
a(S'img_126.jpg'
p2625
(lp2626
(I548
I421
I105
I22
tp2627
a(I663
I423
I20
I17
tp2628
a(I695
I424
I57
I17
tp2629
a(I777
I426
I4
I16
tp2630
a(I548
I447
I76
I21
tp2631
a(I636
I449
I19
I16
tp2632
a(I548
I472
I102
I17
tp2633
a(I660
I473
I45
I16
tp2634
a(I776
I474
I20
I18
tp2635
a(I609
I516
I103
I19
tp2636
a(I608
I545
I58
I15
tp2637
a(I687
I543
I9
I18
tp2638
a(I652
I716
I17
I25
tp2639
atp2640
a(S'img_140.jpg'
p2641
(lp2642
(I434
I614
I170
I67
tp2643
a(I615
I631
I163
I65
tp2644
a(I718
I716
I72
I50
tp2645
a(I432
I755
I290
I74
tp2646
a(I735
I778
I155
I62
tp2647
a(I434
I830
I91
I60
tp2648
a(I540
I838
I137
I60
tp2649
atp2650
a(S'img_220.jpg'
p2651
(lp2652
(I615
I1169
I127
I23
tp2653
a(I589
I1204
I171
I23
tp2654
a(I632
I1240
I96
I22
tp2655
atp2656
a(S'img_35.jpg'
p2657
(lp2658
(I384
I224
I76
I39
tp2659
a(I470
I223
I93
I40
tp2660
atp2661
a(S'img_101.jpg'
p2662
(lp2663
(I185
I347
I98
I57
tp2664
a(I103
I439
I263
I79
tp2665
atp2666
a(S'img_95.jpg'
p2667
(lp2668
(I490
I371
I324
I91
tp2669
a(I491
I523
I324
I92
tp2670
atp2671
a(S'img_214.jpg'
p2672
(lp2673
(I887
I160
I84
I34
tp2674
a(I980
I167
I77
I31
tp2675
a(I894
I231
I158
I26
tp2676
a(I926
I278
I99
I24
tp2677
atp2678
a(S'img_188.jpg'
p2679
(lp2680
(I75
I335
I82
I68
tp2681
a(I188
I337
I139
I69
tp2682
a(I361
I352
I121
I56
tp2683
a(I497
I341
I139
I88
tp2684
atp2685
a(S'img_169.jpg'
p2686
(lp2687
(I232
I282
I60
I19
tp2688
a(I299
I286
I25
I15
tp2689
a(I248
I308
I59
I13
tp2690
a(I235
I326
I30
I14
tp2691
a(I272
I327
I50
I17
tp2692
atp2693
a.